
notmain.elf:     file format elf32-littlearm


Disassembly of section .text:

00008000 <_start>:
    8000:	e59ff018 	ldr	pc, [pc, #24]	; 8020 <reset_handler>
    8004:	e59ff018 	ldr	pc, [pc, #24]	; 8024 <undefined_handler>
    8008:	e59ff018 	ldr	pc, [pc, #24]	; 8028 <swi_handler>
    800c:	e59ff018 	ldr	pc, [pc, #24]	; 802c <prefetch_handler>
    8010:	e59ff018 	ldr	pc, [pc, #24]	; 8030 <data_handler>
    8014:	e59ff018 	ldr	pc, [pc, #24]	; 8034 <unused_handler>
    8018:	e59ff018 	ldr	pc, [pc, #24]	; 8038 <irq_handler>
    801c:	e59ff018 	ldr	pc, [pc, #24]	; 803c <fiq_handler>

00008020 <reset_handler>:
    8020:	00008040 	andeq	r8, r0, r0, asr #32

00008024 <undefined_handler>:
    8024:	00008080 	andeq	r8, r0, r0, lsl #1

00008028 <swi_handler>:
    8028:	00008080 	andeq	r8, r0, r0, lsl #1

0000802c <prefetch_handler>:
    802c:	00008080 	andeq	r8, r0, r0, lsl #1

00008030 <data_handler>:
    8030:	00008080 	andeq	r8, r0, r0, lsl #1

00008034 <unused_handler>:
    8034:	00008080 	andeq	r8, r0, r0, lsl #1

00008038 <irq_handler>:
    8038:	000080a8 	andeq	r8, r0, r8, lsr #1

0000803c <fiq_handler>:
    803c:	00008080 	andeq	r8, r0, r0, lsl #1

00008040 <reset>:
    8040:	e3a00902 	mov	r0, #32768	; 0x8000
    8044:	e3a01000 	mov	r1, #0
    8048:	e8b003fc 	ldm	r0!, {r2, r3, r4, r5, r6, r7, r8, r9}
    804c:	e8a103fc 	stmia	r1!, {r2, r3, r4, r5, r6, r7, r8, r9}
    8050:	e8b003fc 	ldm	r0!, {r2, r3, r4, r5, r6, r7, r8, r9}
    8054:	e8a103fc 	stmia	r1!, {r2, r3, r4, r5, r6, r7, r8, r9}
    8058:	e3a000d2 	mov	r0, #210	; 0xd2
    805c:	e121f000 	msr	CPSR_c, r0
    8060:	e3a0d902 	mov	sp, #32768	; 0x8000
    8064:	e3a000d1 	mov	r0, #209	; 0xd1
    8068:	e121f000 	msr	CPSR_c, r0
    806c:	e3a0d901 	mov	sp, #16384	; 0x4000
    8070:	e3a000d3 	mov	r0, #211	; 0xd3
    8074:	e121f000 	msr	CPSR_c, r0
    8078:	e3a0d302 	mov	sp, #134217728	; 0x8000000
    807c:	eb000026 	bl	811c <notmain>

00008080 <hang>:
    8080:	eafffffe 	b	8080 <hang>

00008084 <PUT32>:
    8084:	e5801000 	str	r1, [r0]
    8088:	e12fff1e 	bx	lr

0000808c <GET32>:
    808c:	e5900000 	ldr	r0, [r0]
    8090:	e12fff1e 	bx	lr

00008094 <dummy>:
    8094:	e12fff1e 	bx	lr

00008098 <enable_irq>:
    8098:	e10f0000 	mrs	r0, CPSR
    809c:	e3c00080 	bic	r0, r0, #128	; 0x80
    80a0:	e121f000 	msr	CPSR_c, r0
    80a4:	e12fff1e 	bx	lr

000080a8 <irq>:
    80a8:	e92d5fff 	push	{r0, r1, r2, r3, r4, r5, r6, r7, r8, r9, sl, fp, ip, lr}
    80ac:	eb000e9b 	bl	bb20 <c_irq_handler>
    80b0:	e8bd5fff 	pop	{r0, r1, r2, r3, r4, r5, r6, r7, r8, r9, sl, fp, ip, lr}
    80b4:	e25ef004 	subs	pc, lr, #4

000080b8 <start_l1cache>:
    80b8:	e3a00000 	mov	r0, #0
    80bc:	ee070f17 	mcr	15, 0, r0, cr7, cr7, {0}
    80c0:	ee080f17 	mcr	15, 0, r0, cr8, cr7, {0}
    80c4:	ee072f9a 	mcr	15, 0, r2, cr7, cr10, {4}
    80c8:	ee110f10 	mrc	15, 0, r0, cr1, cr0, {0}
    80cc:	e3800a01 	orr	r0, r0, #4096	; 0x1000
    80d0:	e3800004 	orr	r0, r0, #4
    80d4:	ee010f10 	mcr	15, 0, r0, cr1, cr0, {0}
    80d8:	e12fff1e 	bx	lr

000080dc <stop_l1cache>:
    80dc:	ee110f10 	mrc	15, 0, r0, cr1, cr0, {0}
    80e0:	e3c00a01 	bic	r0, r0, #4096	; 0x1000
    80e4:	e3c00004 	bic	r0, r0, #4
    80e8:	ee010f10 	mcr	15, 0, r0, cr1, cr0, {0}
    80ec:	e12fff1e 	bx	lr

000080f0 <start_mmu>:
    80f0:	e3a02000 	mov	r2, #0
    80f4:	ee072f17 	mcr	15, 0, r2, cr7, cr7, {0}
    80f8:	ee082f17 	mcr	15, 0, r2, cr8, cr7, {0}
    80fc:	e3e02000 	mvn	r2, #0
    8100:	ee032f10 	mcr	15, 0, r2, cr3, cr0, {0}
    8104:	ee020f10 	mcr	15, 0, r0, cr2, cr0, {0}
    8108:	ee020f30 	mcr	15, 0, r0, cr2, cr0, {1}
    810c:	ee112f10 	mrc	15, 0, r2, cr1, cr0, {0}
    8110:	e1822001 	orr	r2, r2, r1
    8114:	ee012f10 	mcr	15, 0, r2, cr1, cr0, {0}
    8118:	e12fff1e 	bx	lr

0000811c <notmain>:
    811c:	e3a02000 	mov	r2, #0
    8120:	e59f30d8 	ldr	r3, [pc, #216]	; 8200 <notmain+0xe4>
    8124:	e92d4070 	push	{r4, r5, r6, lr}
    8128:	e5c32000 	strb	r2, [r3]
    812c:	eb0004ba 	bl	941c <cacheInit>
    8130:	e2504000 	subs	r4, r0, #0
    8134:	0a000002 	beq	8144 <notmain+0x28>
    8138:	e3a00001 	mov	r0, #1
    813c:	e8bd4070 	pop	{r4, r5, r6, lr}
    8140:	e12fff1e 	bx	lr
    8144:	e3a01001 	mov	r1, #1
    8148:	e59f00b4 	ldr	r0, [pc, #180]	; 8204 <notmain+0xe8>
    814c:	ebffffcc 	bl	8084 <PUT32>
    8150:	e1a05004 	mov	r5, r4
    8154:	e1a00005 	mov	r0, r5
    8158:	e2855001 	add	r5, r5, #1
    815c:	ebffffcc 	bl	8094 <dummy>
    8160:	e3550096 	cmp	r5, #150	; 0x96
    8164:	1afffffa 	bne	8154 <notmain+0x38>
    8168:	e59f1098 	ldr	r1, [pc, #152]	; 8208 <notmain+0xec>
    816c:	e59f0098 	ldr	r0, [pc, #152]	; 820c <notmain+0xf0>
    8170:	ebffffc3 	bl	8084 <PUT32>
    8174:	e1a00004 	mov	r0, r4
    8178:	e2844001 	add	r4, r4, #1
    817c:	ebffffc4 	bl	8094 <dummy>
    8180:	e3540096 	cmp	r4, #150	; 0x96
    8184:	1afffffa 	bne	8174 <notmain+0x58>
    8188:	e3a01000 	mov	r1, #0
    818c:	e59f0070 	ldr	r0, [pc, #112]	; 8204 <notmain+0xe8>
    8190:	ebffffbb 	bl	8084 <PUT32>
    8194:	e3a01000 	mov	r1, #0
    8198:	e59f006c 	ldr	r0, [pc, #108]	; 820c <notmain+0xf0>
    819c:	ebffffb8 	bl	8084 <PUT32>
    81a0:	e3a02001 	mov	r2, #1
    81a4:	e3a01005 	mov	r1, #5
    81a8:	e59f0060 	ldr	r0, [pc, #96]	; 8210 <notmain+0xf4>
    81ac:	eb000047 	bl	82d0 <GPFSel>
    81b0:	e3a02001 	mov	r2, #1
    81b4:	e3a01007 	mov	r1, #7
    81b8:	e59f0054 	ldr	r0, [pc, #84]	; 8214 <notmain+0xf8>
    81bc:	eb000043 	bl	82d0 <GPFSel>
    81c0:	e3a01402 	mov	r1, #33554432	; 0x2000000
    81c4:	e59f004c 	ldr	r0, [pc, #76]	; 8218 <notmain+0xfc>
    81c8:	ebffffad 	bl	8084 <PUT32>
    81cc:	eb000012 	bl	821c <spi_init>
    81d0:	eb000165 	bl	876c <ControllerInit>
    81d4:	e3a000ff 	mov	r0, #255	; 0xff
    81d8:	eb0002d0 	bl	8d20 <GFXColor>
    81dc:	e3a00000 	mov	r0, #0
    81e0:	eb0002ce 	bl	8d20 <GFXColor>
    81e4:	eb00008f 	bl	8428 <ColInit>
    81e8:	eb0000ab 	bl	849c <RowInit>
    81ec:	e3a00030 	mov	r0, #48	; 0x30
    81f0:	eb000273 	bl	8bc4 <FBWriteChar>
    81f4:	eb000473 	bl	93c8 <memInit>
    81f8:	eb000d47 	bl	b71c <shell>
    81fc:	eafffffd 	b	81f8 <notmain+0xdc>
    8200:	0000f6b9 			; <UNDEFINED> instruction: 0x0000f6b9
    8204:	20200094 	mlacs	r0, r4, r0, r0
    8208:	013bf0c0 	teqeq	fp, r0, asr #1	; <UNPREDICTABLE>
    820c:	20200098 	mlacs	r0, r8, r0, r0
    8210:	20200008 	eorcs	r0, r0, r8
    8214:	20200010 	eorcs	r0, r0, r0, lsl r0
    8218:	2020001c 	eorcs	r0, r0, ip, lsl r0

0000821c <spi_init>:
    821c:	e92d4070 	push	{r4, r5, r6, lr}
    8220:	e59f4098 	ldr	r4, [pc, #152]	; 82c0 <spi_init+0xa4>
    8224:	e1a00004 	mov	r0, r4
    8228:	ebffff97 	bl	808c <GET32>
    822c:	e59f5090 	ldr	r5, [pc, #144]	; 82c4 <spi_init+0xa8>
    8230:	e3801002 	orr	r1, r0, #2
    8234:	e1a00004 	mov	r0, r4
    8238:	ebffff91 	bl	8084 <PUT32>
    823c:	e1a00005 	mov	r0, r5
    8240:	ebffff91 	bl	808c <GET32>
    8244:	e3c0130e 	bic	r1, r0, #939524096	; 0x38000000
    8248:	e3811202 	orr	r1, r1, #536870912	; 0x20000000
    824c:	e1a00005 	mov	r0, r5
    8250:	ebffff8b 	bl	8084 <PUT32>
    8254:	e1a00005 	mov	r0, r5
    8258:	ebffff8b 	bl	808c <GET32>
    825c:	e3c01407 	bic	r1, r0, #117440512	; 0x7000000
    8260:	e2444a15 	sub	r4, r4, #86016	; 0x15000
    8264:	e1a00005 	mov	r0, r5
    8268:	e3811301 	orr	r1, r1, #67108864	; 0x4000000
    826c:	ebffff84 	bl	8084 <PUT32>
    8270:	e1a00004 	mov	r0, r4
    8274:	ebffff84 	bl	808c <GET32>
    8278:	e3c01007 	bic	r1, r0, #7
    827c:	e3811004 	orr	r1, r1, #4
    8280:	e1a00004 	mov	r0, r4
    8284:	ebffff7e 	bl	8084 <PUT32>
    8288:	e1a00004 	mov	r0, r4
    828c:	ebffff7e 	bl	808c <GET32>
    8290:	e3c01038 	bic	r1, r0, #56	; 0x38
    8294:	e3811020 	orr	r1, r1, #32
    8298:	e1a00004 	mov	r0, r4
    829c:	ebffff78 	bl	8084 <PUT32>
    82a0:	e3a01030 	mov	r1, #48	; 0x30
    82a4:	e59f001c 	ldr	r0, [pc, #28]	; 82c8 <spi_init+0xac>
    82a8:	ebffff75 	bl	8084 <PUT32>
    82ac:	e3a01014 	mov	r1, #20
    82b0:	e59f0014 	ldr	r0, [pc, #20]	; 82cc <spi_init+0xb0>
    82b4:	ebffff72 	bl	8084 <PUT32>
    82b8:	e8bd4070 	pop	{r4, r5, r6, lr}
    82bc:	e12fff1e 	bx	lr
    82c0:	20215004 	eorcs	r5, r1, r4
    82c4:	20200000 	eorcs	r0, r0, r0
    82c8:	20204000 	eorcs	r4, r0, r0
    82cc:	20204008 	eorcs	r4, r0, r8

000082d0 <GPFSel>:
    82d0:	e92d4070 	push	{r4, r5, r6, lr}
    82d4:	e1a04001 	mov	r4, r1
    82d8:	e1a05002 	mov	r5, r2
    82dc:	e1a06000 	mov	r6, r0
    82e0:	ebffff69 	bl	808c <GET32>
    82e4:	e3a03007 	mov	r3, #7
    82e8:	e0844084 	add	r4, r4, r4, lsl #1
    82ec:	e1c03413 	bic	r3, r0, r3, lsl r4
    82f0:	e1831415 	orr	r1, r3, r5, lsl r4
    82f4:	e1a00006 	mov	r0, r6
    82f8:	ebffff61 	bl	8084 <PUT32>
    82fc:	e8bd4070 	pop	{r4, r5, r6, lr}
    8300:	e12fff1e 	bx	lr

00008304 <spi_write>:
    8304:	e92d4070 	push	{r4, r5, r6, lr}
    8308:	e3a01030 	mov	r1, #48	; 0x30
    830c:	e1a05000 	mov	r5, r0
    8310:	e59f0064 	ldr	r0, [pc, #100]	; 837c <spi_write+0x78>
    8314:	ebffff5a 	bl	8084 <PUT32>
    8318:	e3a01080 	mov	r1, #128	; 0x80
    831c:	e59f0058 	ldr	r0, [pc, #88]	; 837c <spi_write+0x78>
    8320:	ebffff57 	bl	8084 <PUT32>
    8324:	e59f4050 	ldr	r4, [pc, #80]	; 837c <spi_write+0x78>
    8328:	e1a00004 	mov	r0, r4
    832c:	ebffff56 	bl	808c <GET32>
    8330:	e3100701 	tst	r0, #262144	; 0x40000
    8334:	0afffffb 	beq	8328 <spi_write+0x24>
    8338:	e1a01005 	mov	r1, r5
    833c:	e59f003c 	ldr	r0, [pc, #60]	; 8380 <spi_write+0x7c>
    8340:	ebffff4f 	bl	8084 <PUT32>
    8344:	e59f4030 	ldr	r4, [pc, #48]	; 837c <spi_write+0x78>
    8348:	e1a00004 	mov	r0, r4
    834c:	ebffff4e 	bl	808c <GET32>
    8350:	e3100801 	tst	r0, #65536	; 0x10000
    8354:	0afffffb 	beq	8348 <spi_write+0x44>
    8358:	e59f001c 	ldr	r0, [pc, #28]	; 837c <spi_write+0x78>
    835c:	ebffff4a 	bl	808c <GET32>
    8360:	e3100701 	tst	r0, #262144	; 0x40000
    8364:	0afffffb 	beq	8358 <spi_write+0x54>
    8368:	e3a01000 	mov	r1, #0
    836c:	e59f0008 	ldr	r0, [pc, #8]	; 837c <spi_write+0x78>
    8370:	ebffff43 	bl	8084 <PUT32>
    8374:	e8bd4070 	pop	{r4, r5, r6, lr}
    8378:	e12fff1e 	bx	lr
    837c:	20204000 	eorcs	r4, r0, r0
    8380:	20204004 	eorcs	r4, r0, r4

00008384 <spi_write16>:
    8384:	e92d4070 	push	{r4, r5, r6, lr}
    8388:	e3a01030 	mov	r1, #48	; 0x30
    838c:	e1a05000 	mov	r5, r0
    8390:	e59f0088 	ldr	r0, [pc, #136]	; 8420 <spi_write16+0x9c>
    8394:	ebffff3a 	bl	8084 <PUT32>
    8398:	e3a01080 	mov	r1, #128	; 0x80
    839c:	e59f007c 	ldr	r0, [pc, #124]	; 8420 <spi_write16+0x9c>
    83a0:	ebffff37 	bl	8084 <PUT32>
    83a4:	e59f4074 	ldr	r4, [pc, #116]	; 8420 <spi_write16+0x9c>
    83a8:	e1a00004 	mov	r0, r4
    83ac:	ebffff36 	bl	808c <GET32>
    83b0:	e3100701 	tst	r0, #262144	; 0x40000
    83b4:	0afffffb 	beq	83a8 <spi_write16+0x24>
    83b8:	e1a01425 	lsr	r1, r5, #8
    83bc:	e59f0060 	ldr	r0, [pc, #96]	; 8424 <spi_write16+0xa0>
    83c0:	e20110ff 	and	r1, r1, #255	; 0xff
    83c4:	ebffff2e 	bl	8084 <PUT32>
    83c8:	e59f4050 	ldr	r4, [pc, #80]	; 8420 <spi_write16+0x9c>
    83cc:	e1a00004 	mov	r0, r4
    83d0:	ebffff2d 	bl	808c <GET32>
    83d4:	e3100801 	tst	r0, #65536	; 0x10000
    83d8:	0afffffb 	beq	83cc <spi_write16+0x48>
    83dc:	e59f403c 	ldr	r4, [pc, #60]	; 8420 <spi_write16+0x9c>
    83e0:	e1a00004 	mov	r0, r4
    83e4:	ebffff28 	bl	808c <GET32>
    83e8:	e3100701 	tst	r0, #262144	; 0x40000
    83ec:	0afffffb 	beq	83e0 <spi_write16+0x5c>
    83f0:	e59f002c 	ldr	r0, [pc, #44]	; 8424 <spi_write16+0xa0>
    83f4:	e20510ff 	and	r1, r5, #255	; 0xff
    83f8:	ebffff21 	bl	8084 <PUT32>
    83fc:	e59f001c 	ldr	r0, [pc, #28]	; 8420 <spi_write16+0x9c>
    8400:	ebffff21 	bl	808c <GET32>
    8404:	e3100801 	tst	r0, #65536	; 0x10000
    8408:	0afffffb 	beq	83fc <spi_write16+0x78>
    840c:	e3a01000 	mov	r1, #0
    8410:	e59f0008 	ldr	r0, [pc, #8]	; 8420 <spi_write16+0x9c>
    8414:	ebffff1a 	bl	8084 <PUT32>
    8418:	e8bd4070 	pop	{r4, r5, r6, lr}
    841c:	e12fff1e 	bx	lr
    8420:	20204000 	eorcs	r4, r0, r0
    8424:	20204004 	eorcs	r4, r0, r4

00008428 <ColInit>:
    8428:	e92d4010 	push	{r4, lr}
    842c:	e59f4064 	ldr	r4, [pc, #100]	; 8498 <ColInit+0x70>
    8430:	e1a00004 	mov	r0, r4
    8434:	ebffff14 	bl	808c <GET32>
    8438:	e3c01d07 	bic	r1, r0, #448	; 0x1c0
    843c:	e3811040 	orr	r1, r1, #64	; 0x40
    8440:	e1a00004 	mov	r0, r4
    8444:	ebffff0e 	bl	8084 <PUT32>
    8448:	e1a00004 	mov	r0, r4
    844c:	ebffff0e 	bl	808c <GET32>
    8450:	e3c01c0e 	bic	r1, r0, #3584	; 0xe00
    8454:	e3811c02 	orr	r1, r1, #512	; 0x200
    8458:	e1a00004 	mov	r0, r4
    845c:	ebffff08 	bl	8084 <PUT32>
    8460:	e1a00004 	mov	r0, r4
    8464:	ebffff08 	bl	808c <GET32>
    8468:	e3c01a07 	bic	r1, r0, #28672	; 0x7000
    846c:	e3811a01 	orr	r1, r1, #4096	; 0x1000
    8470:	e1a00004 	mov	r0, r4
    8474:	ebffff02 	bl	8084 <PUT32>
    8478:	e1a00004 	mov	r0, r4
    847c:	ebffff02 	bl	808c <GET32>
    8480:	e3c0190e 	bic	r1, r0, #229376	; 0x38000
    8484:	e3811902 	orr	r1, r1, #32768	; 0x8000
    8488:	e1a00004 	mov	r0, r4
    848c:	ebfffefc 	bl	8084 <PUT32>
    8490:	e8bd4010 	pop	{r4, lr}
    8494:	e12fff1e 	bx	lr
    8498:	20200000 	eorcs	r0, r0, r0

0000849c <RowInit>:
    849c:	e92d4070 	push	{r4, r5, r6, lr}
    84a0:	e59f4130 	ldr	r4, [pc, #304]	; 85d8 <RowInit+0x13c>
    84a4:	e1a00004 	mov	r0, r4
    84a8:	ebfffef7 	bl	808c <GET32>
    84ac:	e1a01000 	mov	r1, r0
    84b0:	e1a00004 	mov	r0, r4
    84b4:	e3c11a07 	bic	r1, r1, #28672	; 0x7000
    84b8:	ebfffef1 	bl	8084 <PUT32>
    84bc:	e1a00004 	mov	r0, r4
    84c0:	ebfffef1 	bl	808c <GET32>
    84c4:	e1a01000 	mov	r1, r0
    84c8:	e1a00004 	mov	r0, r4
    84cc:	e3c1190e 	bic	r1, r1, #229376	; 0x38000
    84d0:	ebfffeeb 	bl	8084 <PUT32>
    84d4:	e1a00004 	mov	r0, r4
    84d8:	ebfffeeb 	bl	808c <GET32>
    84dc:	e59f50f8 	ldr	r5, [pc, #248]	; 85dc <RowInit+0x140>
    84e0:	e3c0160e 	bic	r1, r0, #14680064	; 0xe00000
    84e4:	e1a00004 	mov	r0, r4
    84e8:	ebfffee5 	bl	8084 <PUT32>
    84ec:	e1a00005 	mov	r0, r5
    84f0:	ebfffee5 	bl	808c <GET32>
    84f4:	e59f60e4 	ldr	r6, [pc, #228]	; 85e0 <RowInit+0x144>
    84f8:	e3c01a07 	bic	r1, r0, #28672	; 0x7000
    84fc:	e1a00005 	mov	r0, r5
    8500:	ebfffedf 	bl	8084 <PUT32>
    8504:	e1a00006 	mov	r0, r6
    8508:	ebfffedf 	bl	808c <GET32>
    850c:	e1a01000 	mov	r1, r0
    8510:	e1a00006 	mov	r0, r6
    8514:	e3c11707 	bic	r1, r1, #1835008	; 0x1c0000
    8518:	ebfffed9 	bl	8084 <PUT32>
    851c:	e1a00004 	mov	r0, r4
    8520:	ebfffed9 	bl	808c <GET32>
    8524:	e1a01000 	mov	r1, r0
    8528:	e1a00004 	mov	r0, r4
    852c:	e3c11d07 	bic	r1, r1, #448	; 0x1c0
    8530:	ebfffed3 	bl	8084 <PUT32>
    8534:	e1a00004 	mov	r0, r4
    8538:	ebfffed3 	bl	808c <GET32>
    853c:	e1a01000 	mov	r1, r0
    8540:	e1a00004 	mov	r0, r4
    8544:	e3c11c0e 	bic	r1, r1, #3584	; 0xe00
    8548:	ebfffecd 	bl	8084 <PUT32>
    854c:	e1a00004 	mov	r0, r4
    8550:	ebfffecd 	bl	808c <GET32>
    8554:	e1a01000 	mov	r1, r0
    8558:	e1a00004 	mov	r0, r4
    855c:	e3c11707 	bic	r1, r1, #1835008	; 0x1c0000
    8560:	ebfffec7 	bl	8084 <PUT32>
    8564:	e1a00004 	mov	r0, r4
    8568:	ebfffec7 	bl	808c <GET32>
    856c:	e1a01000 	mov	r1, r0
    8570:	e1a00004 	mov	r0, r4
    8574:	e3c1130e 	bic	r1, r1, #939524096	; 0x38000000
    8578:	ebfffec1 	bl	8084 <PUT32>
    857c:	e1a00005 	mov	r0, r5
    8580:	ebfffec1 	bl	808c <GET32>
    8584:	e1a01000 	mov	r1, r0
    8588:	e1a00005 	mov	r0, r5
    858c:	e3c11007 	bic	r1, r1, #7
    8590:	ebfffebb 	bl	8084 <PUT32>
    8594:	e1a00005 	mov	r0, r5
    8598:	ebfffebb 	bl	808c <GET32>
    859c:	e1a01000 	mov	r1, r0
    85a0:	e1a00005 	mov	r0, r5
    85a4:	e3c11038 	bic	r1, r1, #56	; 0x38
    85a8:	ebfffeb5 	bl	8084 <PUT32>
    85ac:	e1a00006 	mov	r0, r6
    85b0:	ebfffeb5 	bl	808c <GET32>
    85b4:	e1a01000 	mov	r1, r0
    85b8:	e1a00006 	mov	r0, r6
    85bc:	e3c1160e 	bic	r1, r1, #14680064	; 0xe00000
    85c0:	ebfffeaf 	bl	8084 <PUT32>
    85c4:	e59f1018 	ldr	r1, [pc, #24]	; 85e4 <RowInit+0x148>
    85c8:	e59f0018 	ldr	r0, [pc, #24]	; 85e8 <RowInit+0x14c>
    85cc:	ebfffeac 	bl	8084 <PUT32>
    85d0:	e8bd4070 	pop	{r4, r5, r6, lr}
    85d4:	e12fff1e 	bx	lr
    85d8:	20200004 	eorcs	r0, r0, r4
    85dc:	20200008 	eorcs	r0, r0, r8
    85e0:	20200000 	eorcs	r0, r0, r0
    85e4:	013bf0c0 	teqeq	fp, r0, asr #1	; <UNPREDICTABLE>
    85e8:	20200064 	eorcs	r0, r0, r4, rrx

000085ec <readInput>:
    85ec:	e92d4010 	push	{r4, lr}
    85f0:	e1a04000 	mov	r4, r0
    85f4:	e59f004c 	ldr	r0, [pc, #76]	; 8648 <readInput+0x5c>
    85f8:	ebfffea3 	bl	808c <GET32>
    85fc:	e3a03901 	mov	r3, #16384	; 0x4000
    8600:	e3a02000 	mov	r2, #0
    8604:	e59f1040 	ldr	r1, [pc, #64]	; 864c <readInput+0x60>
    8608:	ea000000 	b	8610 <readInput+0x24>
    860c:	e4913004 	ldr	r3, [r1], #4
    8610:	e0103003 	ands	r3, r0, r3
    8614:	1a000005 	bne	8630 <readInput+0x44>
    8618:	e2822001 	add	r2, r2, #1
    861c:	e352000c 	cmp	r2, #12
    8620:	1afffff9 	bne	860c <readInput+0x20>
    8624:	e1a00003 	mov	r0, r3
    8628:	e8bd4010 	pop	{r4, lr}
    862c:	e12fff1e 	bx	lr
    8630:	e0843084 	add	r3, r4, r4, lsl #1
    8634:	e0823103 	add	r3, r2, r3, lsl #2
    8638:	e2833001 	add	r3, r3, #1
    863c:	e20300ff 	and	r0, r3, #255	; 0xff
    8640:	e8bd4010 	pop	{r4, lr}
    8644:	e12fff1e 	bx	lr
    8648:	20200034 	eorcs	r0, r0, r4, lsr r0
    864c:	0000f4dc 	ldrdeq	pc, [r0], -ip

00008650 <getInput>:
    8650:	e92d47f0 	push	{r4, r5, r6, r7, r8, r9, sl, lr}
    8654:	e3a06004 	mov	r6, #4
    8658:	e3a05000 	mov	r5, #0
    865c:	e59f704c 	ldr	r7, [pc, #76]	; 86b0 <getInput+0x60>
    8660:	e59f904c 	ldr	r9, [pc, #76]	; 86b4 <getInput+0x64>
    8664:	e59f804c 	ldr	r8, [pc, #76]	; 86b8 <getInput+0x68>
    8668:	e1a01006 	mov	r1, r6
    866c:	e1a00009 	mov	r0, r9
    8670:	ebfffe83 	bl	8084 <PUT32>
    8674:	e20500ff 	and	r0, r5, #255	; 0xff
    8678:	ebffffdb 	bl	85ec <readInput>
    867c:	e1a04000 	mov	r4, r0
    8680:	e1a01006 	mov	r1, r6
    8684:	e1a00008 	mov	r0, r8
    8688:	ebfffe7d 	bl	8084 <PUT32>
    868c:	e3540000 	cmp	r4, #0
    8690:	e2855001 	add	r5, r5, #1
    8694:	1a000002 	bne	86a4 <getInput+0x54>
    8698:	e3550004 	cmp	r5, #4
    869c:	14976004 	ldrne	r6, [r7], #4
    86a0:	1afffff0 	bne	8668 <getInput+0x18>
    86a4:	e1a00004 	mov	r0, r4
    86a8:	e8bd47f0 	pop	{r4, r5, r6, r7, r8, r9, sl, lr}
    86ac:	e12fff1e 	bx	lr
    86b0:	0000f50c 	andeq	pc, r0, ip, lsl #10
    86b4:	2020001c 	eorcs	r0, r0, ip, lsl r0
    86b8:	20200028 	eorcs	r0, r0, r8, lsr #32

000086bc <ControllerCommand>:
    86bc:	e92d000e 	push	{r1, r2, r3}
    86c0:	e92d4030 	push	{r4, r5, lr}
    86c4:	e1a04000 	mov	r4, r0
    86c8:	e24dd038 	sub	sp, sp, #56	; 0x38
    86cc:	e3a01402 	mov	r1, #33554432	; 0x2000000
    86d0:	e59f008c 	ldr	r0, [pc, #140]	; 8764 <ControllerCommand+0xa8>
    86d4:	e5dd5044 	ldrb	r5, [sp, #68]	; 0x44
    86d8:	ebfffe69 	bl	8084 <PUT32>
    86dc:	e1a00004 	mov	r0, r4
    86e0:	ebffff07 	bl	8304 <spi_write>
    86e4:	e3a01402 	mov	r1, #33554432	; 0x2000000
    86e8:	e59f0078 	ldr	r0, [pc, #120]	; 8768 <ControllerCommand+0xac>
    86ec:	ebfffe64 	bl	8084 <PUT32>
    86f0:	e3550000 	cmp	r5, #0
    86f4:	1a000003 	bne	8708 <ControllerCommand+0x4c>
    86f8:	e28dd038 	add	sp, sp, #56	; 0x38
    86fc:	e8bd4030 	pop	{r4, r5, lr}
    8700:	e28dd00c 	add	sp, sp, #12
    8704:	e12fff1e 	bx	lr
    8708:	e28d1048 	add	r1, sp, #72	; 0x48
    870c:	e28d4003 	add	r4, sp, #3
    8710:	e1a03001 	mov	r3, r1
    8714:	e1a02004 	mov	r2, r4
    8718:	e2455001 	sub	r5, r5, #1
    871c:	e20550ff 	and	r5, r5, #255	; 0xff
    8720:	e2850001 	add	r0, r5, #1
    8724:	e58d1000 	str	r1, [sp]
    8728:	e0810100 	add	r0, r1, r0, lsl #2
    872c:	e4931004 	ldr	r1, [r3], #4
    8730:	e1530000 	cmp	r3, r0
    8734:	e5e21001 	strb	r1, [r2, #1]!
    8738:	1afffffb 	bne	872c <ControllerCommand+0x70>
    873c:	e28d3004 	add	r3, sp, #4
    8740:	e0835005 	add	r5, r3, r5
    8744:	e5f40001 	ldrb	r0, [r4, #1]!
    8748:	ebfffeed 	bl	8304 <spi_write>
    874c:	e1540005 	cmp	r4, r5
    8750:	1afffffb 	bne	8744 <ControllerCommand+0x88>
    8754:	e28dd038 	add	sp, sp, #56	; 0x38
    8758:	e8bd4030 	pop	{r4, r5, lr}
    875c:	e28dd00c 	add	sp, sp, #12
    8760:	e12fff1e 	bx	lr
    8764:	20200028 	eorcs	r0, r0, r8, lsr #32
    8768:	2020001c 	eorcs	r0, r0, ip, lsl r0

0000876c <ControllerInit>:
    876c:	e92d4ff0 	push	{r4, r5, r6, r7, r8, r9, sl, fp, lr}
    8770:	e3a01080 	mov	r1, #128	; 0x80
    8774:	e59f0284 	ldr	r0, [pc, #644]	; 8a00 <ControllerInit+0x294>
    8778:	e24dd03c 	sub	sp, sp, #60	; 0x3c
    877c:	ebfffe40 	bl	8084 <PUT32>
    8780:	e3a04000 	mov	r4, #0
    8784:	e1a00004 	mov	r0, r4
    8788:	e2844001 	add	r4, r4, #1
    878c:	ebfffe40 	bl	8094 <dummy>
    8790:	e3540601 	cmp	r4, #1048576	; 0x100000
    8794:	1afffffa 	bne	8784 <ControllerInit+0x18>
    8798:	e3a01080 	mov	r1, #128	; 0x80
    879c:	e59f0260 	ldr	r0, [pc, #608]	; 8a04 <ControllerInit+0x298>
    87a0:	e3a04000 	mov	r4, #0
    87a4:	ebfffe36 	bl	8084 <PUT32>
    87a8:	e3a05002 	mov	r5, #2
    87ac:	e3a03034 	mov	r3, #52	; 0x34
    87b0:	e3a02039 	mov	r2, #57	; 0x39
    87b4:	e98d0028 	stmib	sp, {r3, r5}
    87b8:	e3a01005 	mov	r1, #5
    87bc:	e3a0302c 	mov	r3, #44	; 0x2c
    87c0:	e3a000cb 	mov	r0, #203	; 0xcb
    87c4:	e58d4000 	str	r4, [sp]
    87c8:	ebffffbb 	bl	86bc <ControllerCommand>
    87cc:	e3a03030 	mov	r3, #48	; 0x30
    87d0:	e1a02004 	mov	r2, r4
    87d4:	e3a01003 	mov	r1, #3
    87d8:	e3a000cf 	mov	r0, #207	; 0xcf
    87dc:	e58d3000 	str	r3, [sp]
    87e0:	e3a030c1 	mov	r3, #193	; 0xc1
    87e4:	ebffffb4 	bl	86bc <ControllerCommand>
    87e8:	e3a02078 	mov	r2, #120	; 0x78
    87ec:	e1a03004 	mov	r3, r4
    87f0:	e3a01003 	mov	r1, #3
    87f4:	e3a000e8 	mov	r0, #232	; 0xe8
    87f8:	e58d2000 	str	r2, [sp]
    87fc:	e3a02085 	mov	r2, #133	; 0x85
    8800:	ebffffad 	bl	86bc <ControllerCommand>
    8804:	e1a01005 	mov	r1, r5
    8808:	e1a03004 	mov	r3, r4
    880c:	e1a02004 	mov	r2, r4
    8810:	e3a000ea 	mov	r0, #234	; 0xea
    8814:	ebffffa8 	bl	86bc <ControllerCommand>
    8818:	e3a02012 	mov	r2, #18
    881c:	e3a03081 	mov	r3, #129	; 0x81
    8820:	e3a01004 	mov	r1, #4
    8824:	e88d000c 	stm	sp, {r2, r3}
    8828:	e3a000ed 	mov	r0, #237	; 0xed
    882c:	e3a03003 	mov	r3, #3
    8830:	e3a02064 	mov	r2, #100	; 0x64
    8834:	ebffffa0 	bl	86bc <ControllerCommand>
    8838:	e3a02020 	mov	r2, #32
    883c:	e3a01001 	mov	r1, #1
    8840:	e3a000f7 	mov	r0, #247	; 0xf7
    8844:	ebffff9c 	bl	86bc <ControllerCommand>
    8848:	e3a02023 	mov	r2, #35	; 0x23
    884c:	e3a01001 	mov	r1, #1
    8850:	e3a000c0 	mov	r0, #192	; 0xc0
    8854:	ebffff98 	bl	86bc <ControllerCommand>
    8858:	e3a02010 	mov	r2, #16
    885c:	e3a01001 	mov	r1, #1
    8860:	e3a000c1 	mov	r0, #193	; 0xc1
    8864:	ebffff94 	bl	86bc <ControllerCommand>
    8868:	e3a03028 	mov	r3, #40	; 0x28
    886c:	e1a01005 	mov	r1, r5
    8870:	e3a0203e 	mov	r2, #62	; 0x3e
    8874:	e3a000c5 	mov	r0, #197	; 0xc5
    8878:	ebffff8f 	bl	86bc <ControllerCommand>
    887c:	e3a02086 	mov	r2, #134	; 0x86
    8880:	e3a01001 	mov	r1, #1
    8884:	e3a000c7 	mov	r0, #199	; 0xc7
    8888:	ebffff8b 	bl	86bc <ControllerCommand>
    888c:	e3a02048 	mov	r2, #72	; 0x48
    8890:	e3a01001 	mov	r1, #1
    8894:	e3a00036 	mov	r0, #54	; 0x36
    8898:	ebffff87 	bl	86bc <ControllerCommand>
    889c:	e3a02055 	mov	r2, #85	; 0x55
    88a0:	e3a01001 	mov	r1, #1
    88a4:	e3a0003a 	mov	r0, #58	; 0x3a
    88a8:	ebffff83 	bl	86bc <ControllerCommand>
    88ac:	e1a01005 	mov	r1, r5
    88b0:	e1a02004 	mov	r2, r4
    88b4:	e3a03018 	mov	r3, #24
    88b8:	e3a000b1 	mov	r0, #177	; 0xb1
    88bc:	ebffff7e 	bl	86bc <ControllerCommand>
    88c0:	e3a02027 	mov	r2, #39	; 0x27
    88c4:	e3a03080 	mov	r3, #128	; 0x80
    88c8:	e3a01003 	mov	r1, #3
    88cc:	e3a000b6 	mov	r0, #182	; 0xb6
    88d0:	e58d2000 	str	r2, [sp]
    88d4:	e3a02008 	mov	r2, #8
    88d8:	ebffff77 	bl	86bc <ControllerCommand>
    88dc:	e1a02004 	mov	r2, r4
    88e0:	e3a01001 	mov	r1, #1
    88e4:	e3a000f2 	mov	r0, #242	; 0xf2
    88e8:	ebffff73 	bl	86bc <ControllerCommand>
    88ec:	e3a02001 	mov	r2, #1
    88f0:	e3a00026 	mov	r0, #38	; 0x26
    88f4:	e1a01002 	mov	r1, r2
    88f8:	ebffff6f 	bl	86bc <ControllerCommand>
    88fc:	e3a0500e 	mov	r5, #14
    8900:	e3a0e010 	mov	lr, #16
    8904:	e3a0c037 	mov	ip, #55	; 0x37
    8908:	e3a0200f 	mov	r2, #15
    890c:	e3a06009 	mov	r6, #9
    8910:	e3a07003 	mov	r7, #3
    8914:	e3a08007 	mov	r8, #7
    8918:	e3a000f1 	mov	r0, #241	; 0xf1
    891c:	e3a0104e 	mov	r1, #78	; 0x4e
    8920:	e3a09008 	mov	r9, #8
    8924:	e3a0a00c 	mov	sl, #12
    8928:	e3a0302b 	mov	r3, #43	; 0x2b
    892c:	e58d602c 	str	r6, [sp, #44]	; 0x2c
    8930:	e88d0408 	stm	sp, {r3, sl}
    8934:	e58de020 	str	lr, [sp, #32]
    8938:	e3a03031 	mov	r3, #49	; 0x31
    893c:	e58dc018 	str	ip, [sp, #24]
    8940:	e58d0014 	str	r0, [sp, #20]
    8944:	e58d1010 	str	r1, [sp, #16]
    8948:	e3a000e0 	mov	r0, #224	; 0xe0
    894c:	e1a01002 	mov	r1, r2
    8950:	e58d4030 	str	r4, [sp, #48]	; 0x30
    8954:	e58d5028 	str	r5, [sp, #40]	; 0x28
    8958:	e58d5008 	str	r5, [sp, #8]
    895c:	e58d7024 	str	r7, [sp, #36]	; 0x24
    8960:	e58d801c 	str	r8, [sp, #28]
    8964:	e58d900c 	str	r9, [sp, #12]
    8968:	ebffff53 	bl	86bc <ControllerCommand>
    896c:	e3a00031 	mov	r0, #49	; 0x31
    8970:	e3a0100f 	mov	r1, #15
    8974:	e3a06011 	mov	r6, #17
    8978:	e3a0e048 	mov	lr, #72	; 0x48
    897c:	e3a0c0c1 	mov	ip, #193	; 0xc1
    8980:	e58d0028 	str	r0, [sp, #40]	; 0x28
    8984:	e58d0010 	str	r0, [sp, #16]
    8988:	e3a0b036 	mov	fp, #54	; 0x36
    898c:	e3a00014 	mov	r0, #20
    8990:	e58d1030 	str	r1, [sp, #48]	; 0x30
    8994:	e58d1020 	str	r1, [sp, #32]
    8998:	e58d0000 	str	r0, [sp]
    899c:	e1a03005 	mov	r3, r5
    89a0:	e3a000e1 	mov	r0, #225	; 0xe1
    89a4:	e1a02004 	mov	r2, r4
    89a8:	e58da024 	str	sl, [sp, #36]	; 0x24
    89ac:	e58d901c 	str	r9, [sp, #28]
    89b0:	e58d800c 	str	r8, [sp, #12]
    89b4:	e58d7004 	str	r7, [sp, #4]
    89b8:	e58db02c 	str	fp, [sp, #44]	; 0x2c
    89bc:	e58de018 	str	lr, [sp, #24]
    89c0:	e58dc014 	str	ip, [sp, #20]
    89c4:	e58d6008 	str	r6, [sp, #8]
    89c8:	ebffff3b 	bl	86bc <ControllerCommand>
    89cc:	e1a01004 	mov	r1, r4
    89d0:	e1a00006 	mov	r0, r6
    89d4:	ebffff38 	bl	86bc <ControllerCommand>
    89d8:	e1a00004 	mov	r0, r4
    89dc:	e2844001 	add	r4, r4, #1
    89e0:	ebfffdab 	bl	8094 <dummy>
    89e4:	e3540812 	cmp	r4, #1179648	; 0x120000
    89e8:	1afffffa 	bne	89d8 <ControllerInit+0x26c>
    89ec:	e3a01000 	mov	r1, #0
    89f0:	e3a00029 	mov	r0, #41	; 0x29
    89f4:	e28dd03c 	add	sp, sp, #60	; 0x3c
    89f8:	e8bd4ff0 	pop	{r4, r5, r6, r7, r8, r9, sl, fp, lr}
    89fc:	eaffff2e 	b	86bc <ControllerCommand>
    8a00:	20200028 	eorcs	r0, r0, r8, lsr #32
    8a04:	2020001c 	eorcs	r0, r0, ip, lsl r0

00008a08 <ControllerRender>:
    8a08:	e3a03000 	mov	r3, #0
    8a0c:	e3a01040 	mov	r1, #64	; 0x40
    8a10:	e3a02001 	mov	r2, #1
    8a14:	e92d40f0 	push	{r4, r5, r6, r7, lr}
    8a18:	e24dd00c 	sub	sp, sp, #12
    8a1c:	e3a0002b 	mov	r0, #43	; 0x2b
    8a20:	e58d1004 	str	r1, [sp, #4]
    8a24:	e58d2000 	str	r2, [sp]
    8a28:	e3a01004 	mov	r1, #4
    8a2c:	e1a02003 	mov	r2, r3
    8a30:	ebffff21 	bl	86bc <ControllerCommand>
    8a34:	e3a03000 	mov	r3, #0
    8a38:	e3a020f0 	mov	r2, #240	; 0xf0
    8a3c:	e58d3000 	str	r3, [sp]
    8a40:	e3a01004 	mov	r1, #4
    8a44:	e3a0002a 	mov	r0, #42	; 0x2a
    8a48:	e58d2004 	str	r2, [sp, #4]
    8a4c:	e1a02003 	mov	r2, r3
    8a50:	ebffff19 	bl	86bc <ControllerCommand>
    8a54:	e3a01402 	mov	r1, #33554432	; 0x2000000
    8a58:	e59f0058 	ldr	r0, [pc, #88]	; 8ab8 <ControllerRender+0xb0>
    8a5c:	ebfffd88 	bl	8084 <PUT32>
    8a60:	e59f6054 	ldr	r6, [pc, #84]	; 8abc <ControllerRender+0xb4>
    8a64:	e3a0002c 	mov	r0, #44	; 0x2c
    8a68:	ebfffe25 	bl	8304 <spi_write>
    8a6c:	e3a01402 	mov	r1, #33554432	; 0x2000000
    8a70:	e59f0048 	ldr	r0, [pc, #72]	; 8ac0 <ControllerRender+0xb8>
    8a74:	e2867b4b 	add	r7, r6, #76800	; 0x12c00
    8a78:	ebfffd81 	bl	8084 <PUT32>
    8a7c:	e1a05006 	mov	r5, r6
    8a80:	e28660f0 	add	r6, r6, #240	; 0xf0
    8a84:	e1a04006 	mov	r4, r6
    8a88:	e5740001 	ldrb	r0, [r4, #-1]!
    8a8c:	e1800400 	orr	r0, r0, r0, lsl #8
    8a90:	e1a00800 	lsl	r0, r0, #16
    8a94:	e1a00840 	asr	r0, r0, #16
    8a98:	ebfffe39 	bl	8384 <spi_write16>
    8a9c:	e1550004 	cmp	r5, r4
    8aa0:	1afffff8 	bne	8a88 <ControllerRender+0x80>
    8aa4:	e1560007 	cmp	r6, r7
    8aa8:	1afffff3 	bne	8a7c <ControllerRender+0x74>
    8aac:	e28dd00c 	add	sp, sp, #12
    8ab0:	e8bd40f0 	pop	{r4, r5, r6, r7, lr}
    8ab4:	e12fff1e 	bx	lr
    8ab8:	20200028 	eorcs	r0, r0, r8, lsr #32
    8abc:	00011790 	muleq	r1, r0, r7
    8ac0:	2020001c 	eorcs	r0, r0, ip, lsl r0
    8ac4:	00000000 	andeq	r0, r0, r0

00008ac8 <FBCharAdvance.part.0>:
    8ac8:	e3a00001 	mov	r0, #1
    8acc:	e59f2020 	ldr	r2, [pc, #32]	; 8af4 <FBCharAdvance.part.0+0x2c>
    8ad0:	e5d23000 	ldrb	r3, [r2]
    8ad4:	e0833000 	add	r3, r3, r0
    8ad8:	e20330ff 	and	r3, r3, #255	; 0xff
    8adc:	e3530017 	cmp	r3, #23
    8ae0:	83a03000 	movhi	r3, #0
    8ae4:	e59f100c 	ldr	r1, [pc, #12]	; 8af8 <FBCharAdvance.part.0+0x30>
    8ae8:	e5c23000 	strb	r3, [r2]
    8aec:	e5c10000 	strb	r0, [r1]
    8af0:	e12fff1e 	bx	lr
    8af4:	0000f6b8 			; <UNDEFINED> instruction: 0x0000f6b8
    8af8:	0000f6ac 	andeq	pc, r0, ip, lsr #13

00008afc <FBCharNewline.part.0>:
    8afc:	e3a01000 	mov	r1, #0
    8b00:	e59f3034 	ldr	r3, [pc, #52]	; 8b3c <FBCharNewline.part.0+0x40>
    8b04:	e59f2034 	ldr	r2, [pc, #52]	; 8b40 <FBCharNewline.part.0+0x44>
    8b08:	e92d4010 	push	{r4, lr}
    8b0c:	e5c31000 	strb	r1, [r3]
    8b10:	e2820b4b 	add	r0, r2, #76800	; 0x12c00
    8b14:	e24230f0 	sub	r3, r2, #240	; 0xf0
    8b18:	e5e31001 	strb	r1, [r3, #1]!
    8b1c:	e1530002 	cmp	r3, r2
    8b20:	1afffffc 	bne	8b18 <FBCharNewline.part.0+0x1c>
    8b24:	e28320f0 	add	r2, r3, #240	; 0xf0
    8b28:	e1520000 	cmp	r2, r0
    8b2c:	1afffff8 	bne	8b14 <FBCharNewline.part.0+0x18>
    8b30:	ebffffb4 	bl	8a08 <ControllerRender>
    8b34:	e8bd4010 	pop	{r4, lr}
    8b38:	e12fff1e 	bx	lr
    8b3c:	0000f6b8 			; <UNDEFINED> instruction: 0x0000f6b8
    8b40:	0001187f 	andeq	r1, r1, pc, ror r8

00008b44 <FBWrite>:
    8b44:	e59f300c 	ldr	r3, [pc, #12]	; 8b58 <FBWrite+0x14>
    8b48:	e0600200 	rsb	r0, r0, r0, lsl #4
    8b4c:	e0830200 	add	r0, r3, r0, lsl #4
    8b50:	e7c02001 	strb	r2, [r0, r1]
    8b54:	e12fff1e 	bx	lr
    8b58:	00011790 	muleq	r1, r0, r7

00008b5c <FBRender>:
    8b5c:	e92d4010 	push	{r4, lr}
    8b60:	ebffffa8 	bl	8a08 <ControllerRender>
    8b64:	e8bd4010 	pop	{r4, lr}
    8b68:	e12fff1e 	bx	lr

00008b6c <FBCharAdvance>:
    8b6c:	e59f2018 	ldr	r2, [pc, #24]	; 8b8c <FBCharAdvance+0x20>
    8b70:	e5d23000 	ldrb	r3, [r2]
    8b74:	e2833001 	add	r3, r3, #1
    8b78:	e20330ff 	and	r3, r3, #255	; 0xff
    8b7c:	e3530027 	cmp	r3, #39	; 0x27
    8b80:	e5c23000 	strb	r3, [r2]
    8b84:	912fff1e 	bxls	lr
    8b88:	eaffffce 	b	8ac8 <FBCharAdvance.part.0>
    8b8c:	0000f6ac 	andeq	pc, r0, ip, lsr #13

00008b90 <FBCharNewline>:
    8b90:	e3a00001 	mov	r0, #1
    8b94:	e59f2020 	ldr	r2, [pc, #32]	; 8bbc <FBCharNewline+0x2c>
    8b98:	e5d23000 	ldrb	r3, [r2]
    8b9c:	e0833000 	add	r3, r3, r0
    8ba0:	e20330ff 	and	r3, r3, #255	; 0xff
    8ba4:	e59f1014 	ldr	r1, [pc, #20]	; 8bc0 <FBCharNewline+0x30>
    8ba8:	e3530017 	cmp	r3, #23
    8bac:	e5c23000 	strb	r3, [r2]
    8bb0:	e5c10000 	strb	r0, [r1]
    8bb4:	912fff1e 	bxls	lr
    8bb8:	eaffffcf 	b	8afc <FBCharNewline.part.0>
    8bbc:	0000f6b8 			; <UNDEFINED> instruction: 0x0000f6b8
    8bc0:	0000f6ac 	andeq	pc, r0, ip, lsr #13

00008bc4 <FBWriteChar>:
    8bc4:	e59f30e0 	ldr	r3, [pc, #224]	; 8cac <FBWriteChar+0xe8>
    8bc8:	e2402020 	sub	r2, r0, #32
    8bcc:	e0c01293 	smull	r1, r0, r3, r2
    8bd0:	e92d41f0 	push	{r4, r5, r6, r7, r8, lr}
    8bd4:	e59f40d4 	ldr	r4, [pc, #212]	; 8cb0 <FBWriteChar+0xec>
    8bd8:	e59f50d4 	ldr	r5, [pc, #212]	; 8cb4 <FBWriteChar+0xf0>
    8bdc:	e5d43000 	ldrb	r3, [r4]
    8be0:	e1a01fc2 	asr	r1, r2, #31
    8be4:	e5d56000 	ldrb	r6, [r5]
    8be8:	e06112c0 	rsb	r1, r1, r0, asr #5
    8bec:	e0811301 	add	r1, r1, r1, lsl #6
    8bf0:	e1a00383 	lsl	r0, r3, #7
    8bf4:	e086e106 	add	lr, r6, r6, lsl #2
    8bf8:	e59fc0b8 	ldr	ip, [pc, #184]	; 8cb8 <FBWriteChar+0xf4>
    8bfc:	e0422001 	sub	r2, r2, r1
    8c00:	e1a0e08e 	lsl	lr, lr, #1
    8c04:	e0401183 	sub	r1, r0, r3, lsl #3
    8c08:	e08ee201 	add	lr, lr, r1, lsl #4
    8c0c:	e59f10a8 	ldr	r1, [pc, #168]	; 8cbc <FBWriteChar+0xf8>
    8c10:	e0822102 	add	r2, r2, r2, lsl #2
    8c14:	e28c7008 	add	r7, ip, #8
    8c18:	e0877202 	add	r7, r7, r2, lsl #4
    8c1c:	e08cc202 	add	ip, ip, r2, lsl #4
    8c20:	e08ee001 	add	lr, lr, r1
    8c24:	e1a0100e 	mov	r1, lr
    8c28:	e3a02000 	mov	r2, #0
    8c2c:	e7dc0182 	ldrb	r0, [ip, r2, lsl #3]
    8c30:	e2822001 	add	r2, r2, #1
    8c34:	e352000a 	cmp	r2, #10
    8c38:	e4c10001 	strb	r0, [r1], #1
    8c3c:	1afffffa 	bne	8c2c <FBWriteChar+0x68>
    8c40:	e28cc001 	add	ip, ip, #1
    8c44:	e15c0007 	cmp	ip, r7
    8c48:	e28ee0f0 	add	lr, lr, #240	; 0xf0
    8c4c:	1afffff4 	bne	8c24 <FBWriteChar+0x60>
    8c50:	e2833001 	add	r3, r3, #1
    8c54:	e20330ff 	and	r3, r3, #255	; 0xff
    8c58:	e3530027 	cmp	r3, #39	; 0x27
    8c5c:	e5c43000 	strb	r3, [r4]
    8c60:	9a000002 	bls	8c70 <FBWriteChar+0xac>
    8c64:	ebffff97 	bl	8ac8 <FBCharAdvance.part.0>
    8c68:	e5d43000 	ldrb	r3, [r4]
    8c6c:	e5d56000 	ldrb	r6, [r5]
    8c70:	e1933006 	orrs	r3, r3, r6
    8c74:	1a00000a 	bne	8ca4 <FBWriteChar+0xe0>
    8c78:	e1a01003 	mov	r1, r3
    8c7c:	e59f203c 	ldr	r2, [pc, #60]	; 8cc0 <FBWriteChar+0xfc>
    8c80:	e2820b4b 	add	r0, r2, #76800	; 0x12c00
    8c84:	e24230f0 	sub	r3, r2, #240	; 0xf0
    8c88:	e5e31001 	strb	r1, [r3, #1]!
    8c8c:	e1530002 	cmp	r3, r2
    8c90:	1afffffc 	bne	8c88 <FBWriteChar+0xc4>
    8c94:	e28320f0 	add	r2, r3, #240	; 0xf0
    8c98:	e1520000 	cmp	r2, r0
    8c9c:	1afffff8 	bne	8c84 <FBWriteChar+0xc0>
    8ca0:	ebffff58 	bl	8a08 <ControllerRender>
    8ca4:	e8bd41f0 	pop	{r4, r5, r6, r7, r8, lr}
    8ca8:	e12fff1e 	bx	lr
    8cac:	7e07e07f 	mcrvc	0, 0, lr, cr7, cr15, {3}
    8cb0:	0000f6ac 	andeq	pc, r0, ip, lsr #13
    8cb4:	0000f6b8 			; <UNDEFINED> instruction: 0x0000f6b8
    8cb8:	0000e088 	andeq	lr, r0, r8, lsl #1
    8cbc:	00011790 	muleq	r1, r0, r7
    8cc0:	0001187f 	andeq	r1, r1, pc, ror r8

00008cc4 <FBCharReset>:
    8cc4:	e3a03000 	mov	r3, #0
    8cc8:	e59f100c 	ldr	r1, [pc, #12]	; 8cdc <FBCharReset+0x18>
    8ccc:	e59f200c 	ldr	r2, [pc, #12]	; 8ce0 <FBCharReset+0x1c>
    8cd0:	e5c13000 	strb	r3, [r1]
    8cd4:	e5c23000 	strb	r3, [r2]
    8cd8:	e12fff1e 	bx	lr
    8cdc:	0000f6ac 	andeq	pc, r0, ip, lsr #13
    8ce0:	0000f6b8 			; <UNDEFINED> instruction: 0x0000f6b8

00008ce4 <FBWriteString>:
    8ce4:	e3510000 	cmp	r1, #0
    8ce8:	d12fff1e 	bxle	lr
    8cec:	e92d4070 	push	{r4, r5, r6, lr}
    8cf0:	e2404001 	sub	r4, r0, #1
    8cf4:	e0845001 	add	r5, r4, r1
    8cf8:	ea000002 	b	8d08 <FBWriteString+0x24>
    8cfc:	ebffffb0 	bl	8bc4 <FBWriteChar>
    8d00:	e1540005 	cmp	r4, r5
    8d04:	0a000002 	beq	8d14 <FBWriteString+0x30>
    8d08:	e5f40001 	ldrb	r0, [r4, #1]!
    8d0c:	e3500000 	cmp	r0, #0
    8d10:	1afffff9 	bne	8cfc <FBWriteString+0x18>
    8d14:	e8bd4070 	pop	{r4, r5, r6, lr}
    8d18:	e12fff1e 	bx	lr

00008d1c <GFXRender>:
    8d1c:	e12fff1e 	bx	lr

00008d20 <GFXColor>:
    8d20:	e92d4010 	push	{r4, lr}
    8d24:	e59f202c 	ldr	r2, [pc, #44]	; 8d58 <GFXColor+0x38>
    8d28:	e1a01000 	mov	r1, r0
    8d2c:	e2820b4b 	add	r0, r2, #76800	; 0x12c00
    8d30:	e24230f0 	sub	r3, r2, #240	; 0xf0
    8d34:	e5e31001 	strb	r1, [r3, #1]!
    8d38:	e1530002 	cmp	r3, r2
    8d3c:	1afffffc 	bne	8d34 <GFXColor+0x14>
    8d40:	e28320f0 	add	r2, r3, #240	; 0xf0
    8d44:	e1520000 	cmp	r2, r0
    8d48:	1afffff8 	bne	8d30 <GFXColor+0x10>
    8d4c:	ebffff2d 	bl	8a08 <ControllerRender>
    8d50:	e8bd4010 	pop	{r4, lr}
    8d54:	e12fff1e 	bx	lr
    8d58:	0001187f 	andeq	r1, r1, pc, ror r8

00008d5c <FBWriteNum>:
    8d5c:	e92d4ff0 	push	{r4, r5, r6, r7, r8, r9, sl, fp, lr}
    8d60:	e2504000 	subs	r4, r0, #0
    8d64:	e28db020 	add	fp, sp, #32
    8d68:	e24dd014 	sub	sp, sp, #20
    8d6c:	0a000036 	beq	8e4c <FBWriteNum+0xf0>
    8d70:	e1a07001 	mov	r7, r1
    8d74:	ba000030 	blt	8e3c <FBWriteNum+0xe0>
    8d78:	e1a00004 	mov	r0, r4
    8d7c:	e3a05000 	mov	r5, #0
    8d80:	e1a01007 	mov	r1, r7
    8d84:	eb001173 	bl	d358 <__divsi3>
    8d88:	e2855001 	add	r5, r5, #1
    8d8c:	e3500000 	cmp	r0, #0
    8d90:	e20550ff 	and	r5, r5, #255	; 0xff
    8d94:	cafffff9 	bgt	8d80 <FBWriteNum+0x24>
    8d98:	e59f30b8 	ldr	r3, [pc, #184]	; 8e58 <FBWriteNum+0xfc>
    8d9c:	e285c007 	add	ip, r5, #7
    8da0:	e3ccc007 	bic	ip, ip, #7
    8da4:	e893000f 	ldm	r3, {r0, r1, r2, r3}
    8da8:	e04dd00c 	sub	sp, sp, ip
    8dac:	e3550000 	cmp	r5, #0
    8db0:	e24bc024 	sub	ip, fp, #36	; 0x24
    8db4:	e1a0600d 	mov	r6, sp
    8db8:	11a0800d 	movne	r8, sp
    8dbc:	11a0a00d 	movne	sl, sp
    8dc0:	e90c000f 	stmdb	ip, {r0, r1, r2, r3}
    8dc4:	108d9005 	addne	r9, sp, r5
    8dc8:	0a00000e 	beq	8e08 <FBWriteNum+0xac>
    8dcc:	e1a00004 	mov	r0, r4
    8dd0:	e1a01007 	mov	r1, r7
    8dd4:	eb0011a9 	bl	d480 <__aeabi_idivmod>
    8dd8:	e24b3024 	sub	r3, fp, #36	; 0x24
    8ddc:	e0831001 	add	r1, r3, r1
    8de0:	e5513010 	ldrb	r3, [r1, #-16]
    8de4:	e4ca3001 	strb	r3, [sl], #1
    8de8:	e15a0009 	cmp	sl, r9
    8dec:	e1a04000 	mov	r4, r0
    8df0:	1afffff5 	bne	8dcc <FBWriteNum+0x70>
    8df4:	e0865005 	add	r5, r6, r5
    8df8:	e5750001 	ldrb	r0, [r5, #-1]!
    8dfc:	ebffff70 	bl	8bc4 <FBWriteChar>
    8e00:	e1550008 	cmp	r5, r8
    8e04:	1afffffb 	bne	8df8 <FBWriteNum+0x9c>
    8e08:	e3a00001 	mov	r0, #1
    8e0c:	e59f2048 	ldr	r2, [pc, #72]	; 8e5c <FBWriteNum+0x100>
    8e10:	e5d23000 	ldrb	r3, [r2]
    8e14:	e0833000 	add	r3, r3, r0
    8e18:	e20330ff 	and	r3, r3, #255	; 0xff
    8e1c:	e59f103c 	ldr	r1, [pc, #60]	; 8e60 <FBWriteNum+0x104>
    8e20:	e3530017 	cmp	r3, #23
    8e24:	e5c23000 	strb	r3, [r2]
    8e28:	e5c10000 	strb	r0, [r1]
    8e2c:	8bffff32 	blhi	8afc <FBCharNewline.part.0>
    8e30:	e24bd020 	sub	sp, fp, #32
    8e34:	e8bd4ff0 	pop	{r4, r5, r6, r7, r8, r9, sl, fp, lr}
    8e38:	e12fff1e 	bx	lr
    8e3c:	e3a0002d 	mov	r0, #45	; 0x2d
    8e40:	ebffff5f 	bl	8bc4 <FBWriteChar>
    8e44:	e2644000 	rsb	r4, r4, #0
    8e48:	eaffffca 	b	8d78 <FBWriteNum+0x1c>
    8e4c:	e3a00030 	mov	r0, #48	; 0x30
    8e50:	ebffff5b 	bl	8bc4 <FBWriteChar>
    8e54:	eaffffeb 	b	8e08 <FBWriteNum+0xac>
    8e58:	0000e030 	andeq	lr, r0, r0, lsr r0
    8e5c:	0000f6b8 			; <UNDEFINED> instruction: 0x0000f6b8
    8e60:	0000f6ac 	andeq	pc, r0, ip, lsr #13

00008e64 <FBWriteDec>:
    8e64:	e92d4ff0 	push	{r4, r5, r6, r7, r8, r9, sl, fp, lr}
    8e68:	e1a09001 	mov	r9, r1
    8e6c:	e1a05000 	mov	r5, r0
    8e70:	e28db020 	add	fp, sp, #32
    8e74:	e24dd02c 	sub	sp, sp, #44	; 0x2c
    8e78:	e1a00005 	mov	r0, r5
    8e7c:	e1a01009 	mov	r1, r9
    8e80:	e3a02000 	mov	r2, #0
    8e84:	e3a03000 	mov	r3, #0
    8e88:	eb0013e8 	bl	de30 <__aeabi_dcmpeq>
    8e8c:	e3500000 	cmp	r0, #0
    8e90:	e50bd040 	str	sp, [fp, #-64]	; 0xffffffc0
    8e94:	1a0000bc 	bne	918c <FBWriteDec+0x328>
    8e98:	e1a00005 	mov	r0, r5
    8e9c:	e1a01009 	mov	r1, r9
    8ea0:	e3a02000 	mov	r2, #0
    8ea4:	e3a03000 	mov	r3, #0
    8ea8:	eb0013e6 	bl	de48 <__aeabi_dcmplt>
    8eac:	e3500000 	cmp	r0, #0
    8eb0:	1a0000b1 	bne	917c <FBWriteDec+0x318>
    8eb4:	e1a01009 	mov	r1, r9
    8eb8:	e1a00005 	mov	r0, r5
    8ebc:	eb0013f9 	bl	dea8 <__aeabi_d2iz>
    8ec0:	e1a08000 	mov	r8, r0
    8ec4:	eb001246 	bl	d7e4 <__aeabi_i2d>
    8ec8:	e1a02000 	mov	r2, r0
    8ecc:	e1a03001 	mov	r3, r1
    8ed0:	e1a00005 	mov	r0, r5
    8ed4:	e1a01009 	mov	r1, r9
    8ed8:	eb001173 	bl	d4ac <__aeabi_dsub>
    8edc:	e1a02000 	mov	r2, r0
    8ee0:	e1a03001 	mov	r3, r1
    8ee4:	e3580000 	cmp	r8, #0
    8ee8:	e50b203c 	str	r2, [fp, #-60]	; 0xffffffc4
    8eec:	e50b3038 	str	r3, [fp, #-56]	; 0xffffffc8
    8ef0:	da0000b8 	ble	91d8 <FBWriteDec+0x374>
    8ef4:	e1a03008 	mov	r3, r8
    8ef8:	e3a04000 	mov	r4, #0
    8efc:	e59f132c 	ldr	r1, [pc, #812]	; 9230 <FBWriteDec+0x3cc>
    8f00:	e0820391 	umull	r0, r2, r1, r3
    8f04:	e2844001 	add	r4, r4, #1
    8f08:	e3530009 	cmp	r3, #9
    8f0c:	e20440ff 	and	r4, r4, #255	; 0xff
    8f10:	e1a031a2 	lsr	r3, r2, #3
    8f14:	cafffff9 	bgt	8f00 <FBWriteDec+0x9c>
    8f18:	e28f3fc2 	add	r3, pc, #776	; 0x308
    8f1c:	e893000c 	ldm	r3, {r2, r3}
    8f20:	e24b103c 	sub	r1, fp, #60	; 0x3c
    8f24:	e8910003 	ldm	r1, {r0, r1}
    8f28:	eb0013d8 	bl	de90 <__aeabi_dcmpgt>
    8f2c:	e2503000 	subs	r3, r0, #0
    8f30:	13a03001 	movne	r3, #1
    8f34:	e50b3048 	str	r3, [fp, #-72]	; 0xffffffb8
    8f38:	e3540009 	cmp	r4, #9
    8f3c:	83a03000 	movhi	r3, #0
    8f40:	92033001 	andls	r3, r3, #1
    8f44:	e3530000 	cmp	r3, #0
    8f48:	0a00001f 	beq	8fcc <FBWriteDec+0x168>
    8f4c:	e24b703c 	sub	r7, fp, #60	; 0x3c
    8f50:	e89700c0 	ldm	r7, {r6, r7}
    8f54:	e3a02000 	mov	r2, #0
    8f58:	e59f32d4 	ldr	r3, [pc, #724]	; 9234 <FBWriteDec+0x3d0>
    8f5c:	e1a00006 	mov	r0, r6
    8f60:	e1a01007 	mov	r1, r7
    8f64:	eb001257 	bl	d8c8 <__aeabi_dmul>
    8f68:	e1a07001 	mov	r7, r1
    8f6c:	e1a06000 	mov	r6, r0
    8f70:	eb0013cc 	bl	dea8 <__aeabi_d2iz>
    8f74:	eb00121a 	bl	d7e4 <__aeabi_i2d>
    8f78:	e1a02000 	mov	r2, r0
    8f7c:	e1a03001 	mov	r3, r1
    8f80:	e1a00006 	mov	r0, r6
    8f84:	e1a01007 	mov	r1, r7
    8f88:	eb001147 	bl	d4ac <__aeabi_dsub>
    8f8c:	e28f3fa5 	add	r3, pc, #660	; 0x294
    8f90:	e893000c 	ldm	r3, {r2, r3}
    8f94:	e1a06000 	mov	r6, r0
    8f98:	e1a07001 	mov	r7, r1
    8f9c:	eb0013bb 	bl	de90 <__aeabi_dcmpgt>
    8fa0:	e2844001 	add	r4, r4, #1
    8fa4:	e20440ff 	and	r4, r4, #255	; 0xff
    8fa8:	e3540009 	cmp	r4, #9
    8fac:	83a03000 	movhi	r3, #0
    8fb0:	93a03001 	movls	r3, #1
    8fb4:	e3500000 	cmp	r0, #0
    8fb8:	03a03000 	moveq	r3, #0
    8fbc:	e3530000 	cmp	r3, #0
    8fc0:	1affffe3 	bne	8f54 <FBWriteDec+0xf0>
    8fc4:	e3580000 	cmp	r8, #0
    8fc8:	da000074 	ble	91a0 <FBWriteDec+0x33c>
    8fcc:	e3a06000 	mov	r6, #0
    8fd0:	e59f3258 	ldr	r3, [pc, #600]	; 9230 <FBWriteDec+0x3cc>
    8fd4:	e0821893 	umull	r1, r2, r3, r8
    8fd8:	e2866001 	add	r6, r6, #1
    8fdc:	e3580009 	cmp	r8, #9
    8fe0:	e20660ff 	and	r6, r6, #255	; 0xff
    8fe4:	e1a081a2 	lsr	r8, r2, #3
    8fe8:	cafffff9 	bgt	8fd4 <FBWriteDec+0x170>
    8fec:	e59f3244 	ldr	r3, [pc, #580]	; 9238 <FBWriteDec+0x3d4>
    8ff0:	e8930007 	ldm	r3, {r0, r1, r2}
    8ff4:	e24b3030 	sub	r3, fp, #48	; 0x30
    8ff8:	e8a30003 	stmia	r3!, {r0, r1}
    8ffc:	e2841008 	add	r1, r4, #8
    9000:	e3c11007 	bic	r1, r1, #7
    9004:	e1c320b0 	strh	r2, [r3]
    9008:	e04dd001 	sub	sp, sp, r1
    900c:	e2843001 	add	r3, r4, #1
    9010:	e3560000 	cmp	r6, #0
    9014:	e1a0800d 	mov	r8, sp
    9018:	e50b3044 	str	r3, [fp, #-68]	; 0xffffffbc
    901c:	e50b604c 	str	r6, [fp, #-76]	; 0xffffffb4
    9020:	0a00007d 	beq	921c <FBWriteDec+0x3b8>
    9024:	e044a006 	sub	sl, r4, r6
    9028:	e1a0300a 	mov	r3, sl
    902c:	e08d2006 	add	r2, sp, r6
    9030:	e28a7001 	add	r7, sl, #1
    9034:	e282a001 	add	sl, r2, #1
    9038:	e08d7007 	add	r7, sp, r7
    903c:	e08aa003 	add	sl, sl, r3
    9040:	e1a01009 	mov	r1, r9
    9044:	e1a00005 	mov	r0, r5
    9048:	eb001396 	bl	dea8 <__aeabi_d2iz>
    904c:	e1a03000 	mov	r3, r0
    9050:	e59fc1e4 	ldr	ip, [pc, #484]	; 923c <FBWriteDec+0x3d8>
    9054:	e0cc2c93 	smull	r2, ip, r3, ip
    9058:	e1a02fc3 	asr	r2, r3, #31
    905c:	e062214c 	rsb	r2, r2, ip, asr #2
    9060:	e0822102 	add	r2, r2, r2, lsl #2
    9064:	e0433082 	sub	r3, r3, r2, lsl #1
    9068:	e24b2024 	sub	r2, fp, #36	; 0x24
    906c:	e0823003 	add	r3, r2, r3
    9070:	e553300c 	ldrb	r3, [r3, #-12]
    9074:	e1a00005 	mov	r0, r5
    9078:	e4c73001 	strb	r3, [r7], #1
    907c:	e1a01009 	mov	r1, r9
    9080:	e3a02000 	mov	r2, #0
    9084:	e59f31a8 	ldr	r3, [pc, #424]	; 9234 <FBWriteDec+0x3d0>
    9088:	eb0012b2 	bl	db58 <__aeabi_ddiv>
    908c:	e15a0007 	cmp	sl, r7
    9090:	e1a05000 	mov	r5, r0
    9094:	e1a09001 	mov	r9, r1
    9098:	1affffe8 	bne	9040 <FBWriteDec+0x1dc>
    909c:	e51b3048 	ldr	r3, [fp, #-72]	; 0xffffffb8
    90a0:	e3530000 	cmp	r3, #0
    90a4:	0a000024 	beq	913c <FBWriteDec+0x2d8>
    90a8:	e3e02000 	mvn	r2, #0
    90ac:	e51b304c 	ldr	r3, [fp, #-76]	; 0xffffffb4
    90b0:	e0446006 	sub	r6, r4, r6
    90b4:	e0883003 	add	r3, r8, r3
    90b8:	e0833006 	add	r3, r3, r6
    90bc:	e3560000 	cmp	r6, #0
    90c0:	e5432001 	strb	r2, [r3, #-1]
    90c4:	0a00001c 	beq	913c <FBWriteDec+0x2d8>
    90c8:	e3a04000 	mov	r4, #0
    90cc:	e0866002 	add	r6, r6, r2
    90d0:	e1a0a008 	mov	sl, r8
    90d4:	e0886006 	add	r6, r8, r6
    90d8:	e59f5154 	ldr	r5, [pc, #340]	; 9234 <FBWriteDec+0x3d0>
    90dc:	e59f7158 	ldr	r7, [pc, #344]	; 923c <FBWriteDec+0x3d8>
    90e0:	e24b903c 	sub	r9, fp, #60	; 0x3c
    90e4:	e8990300 	ldm	r9, {r8, r9}
    90e8:	e1a03005 	mov	r3, r5
    90ec:	e1a00008 	mov	r0, r8
    90f0:	e1a01009 	mov	r1, r9
    90f4:	e1a02004 	mov	r2, r4
    90f8:	eb0011f2 	bl	d8c8 <__aeabi_dmul>
    90fc:	e1a09001 	mov	r9, r1
    9100:	e1a08000 	mov	r8, r0
    9104:	eb001367 	bl	dea8 <__aeabi_d2iz>
    9108:	e0c13097 	smull	r3, r1, r7, r0
    910c:	e1a03fc0 	asr	r3, r0, #31
    9110:	e0633141 	rsb	r3, r3, r1, asr #2
    9114:	e0833103 	add	r3, r3, r3, lsl #2
    9118:	e0400083 	sub	r0, r0, r3, lsl #1
    911c:	e24b3024 	sub	r3, fp, #36	; 0x24
    9120:	e0830000 	add	r0, r3, r0
    9124:	e550300c 	ldrb	r3, [r0, #-12]
    9128:	e15a0006 	cmp	sl, r6
    912c:	e5c63000 	strb	r3, [r6]
    9130:	e2466001 	sub	r6, r6, #1
    9134:	1affffeb 	bne	90e8 <FBWriteDec+0x284>
    9138:	e1a0800a 	mov	r8, sl
    913c:	e51b3044 	ldr	r3, [fp, #-68]	; 0xffffffbc
    9140:	e2434001 	sub	r4, r3, #1
    9144:	e0884004 	add	r4, r8, r4
    9148:	e1a05004 	mov	r5, r4
    914c:	e5d40000 	ldrb	r0, [r4]
    9150:	e2403030 	sub	r3, r0, #48	; 0x30
    9154:	e3530009 	cmp	r3, #9
    9158:	83a0002e 	movhi	r0, #46	; 0x2e
    915c:	ebfffe98 	bl	8bc4 <FBWriteChar>
    9160:	e1580005 	cmp	r8, r5
    9164:	e2444001 	sub	r4, r4, #1
    9168:	1afffff6 	bne	9148 <FBWriteDec+0x2e4>
    916c:	e51bd040 	ldr	sp, [fp, #-64]	; 0xffffffc0
    9170:	e24bd020 	sub	sp, fp, #32
    9174:	e8bd4ff0 	pop	{r4, r5, r6, r7, r8, r9, sl, fp, lr}
    9178:	e12fff1e 	bx	lr
    917c:	e3a0002d 	mov	r0, #45	; 0x2d
    9180:	ebfffe8f 	bl	8bc4 <FBWriteChar>
    9184:	e2899102 	add	r9, r9, #-2147483648	; 0x80000000
    9188:	eaffff49 	b	8eb4 <FBWriteDec+0x50>
    918c:	e3a00030 	mov	r0, #48	; 0x30
    9190:	ebfffe8b 	bl	8bc4 <FBWriteChar>
    9194:	e24bd020 	sub	sp, fp, #32
    9198:	e8bd4ff0 	pop	{r4, r5, r6, r7, r8, r9, sl, fp, lr}
    919c:	e12fff1e 	bx	lr
    91a0:	e3a06000 	mov	r6, #0
    91a4:	e59f308c 	ldr	r3, [pc, #140]	; 9238 <FBWriteDec+0x3d4>
    91a8:	e8930007 	ldm	r3, {r0, r1, r2}
    91ac:	e24b3030 	sub	r3, fp, #48	; 0x30
    91b0:	e8a30003 	stmia	r3!, {r0, r1}
    91b4:	e2841008 	add	r1, r4, #8
    91b8:	e3c11007 	bic	r1, r1, #7
    91bc:	e1c320b0 	strh	r2, [r3]
    91c0:	e04dd001 	sub	sp, sp, r1
    91c4:	e2843001 	add	r3, r4, #1
    91c8:	e1a0800d 	mov	r8, sp
    91cc:	e50b604c 	str	r6, [fp, #-76]	; 0xffffffb4
    91d0:	e50b3044 	str	r3, [fp, #-68]	; 0xffffffbc
    91d4:	eaffffb0 	b	909c <FBWriteDec+0x238>
    91d8:	e28f3048 	add	r3, pc, #72	; 0x48
    91dc:	e893000c 	ldm	r3, {r2, r3}
    91e0:	eb00132a 	bl	de90 <__aeabi_dcmpgt>
    91e4:	e1a0c000 	mov	ip, r0
    91e8:	e25cc000 	subs	ip, ip, #0
    91ec:	13a0c001 	movne	ip, #1
    91f0:	e28f3030 	add	r3, pc, #48	; 0x30
    91f4:	e893000c 	ldm	r3, {r2, r3}
    91f8:	e24b103c 	sub	r1, fp, #60	; 0x3c
    91fc:	e8910003 	ldm	r1, {r0, r1}
    9200:	e50bc048 	str	ip, [fp, #-72]	; 0xffffffb8
    9204:	eb001321 	bl	de90 <__aeabi_dcmpgt>
    9208:	e3500000 	cmp	r0, #0
    920c:	01a04000 	moveq	r4, r0
    9210:	0affffe2 	beq	91a0 <FBWriteDec+0x33c>
    9214:	e3a04000 	mov	r4, #0
    9218:	eaffff4b 	b	8f4c <FBWriteDec+0xe8>
    921c:	e50b604c 	str	r6, [fp, #-76]	; 0xffffffb4
    9220:	eaffff9d 	b	909c <FBWriteDec+0x238>
    9224:	e1a00000 	nop			; (mov r0, r0)
    9228:	d9d7bdbb 	ldmible	r7, {r0, r1, r3, r4, r5, r7, r8, sl, fp, ip, sp, pc}^
    922c:	3ddb7cdf 	ldclcc	12, cr7, [fp, #892]	; 0x37c
    9230:	cccccccd 	stclgt	12, cr12, [ip], {205}	; 0xcd
    9234:	40240000 	eormi	r0, r4, r0
    9238:	0000e044 	andeq	lr, r0, r4, asr #32
    923c:	66666667 	strbtvs	r6, [r6], -r7, ror #12

00009240 <countDigits>:
    9240:	e3500000 	cmp	r0, #0
    9244:	e92d4070 	push	{r4, r5, r6, lr}
    9248:	da00000a 	ble	9278 <countDigits+0x38>
    924c:	e1a05001 	mov	r5, r1
    9250:	e3a04000 	mov	r4, #0
    9254:	e1a01005 	mov	r1, r5
    9258:	eb00103e 	bl	d358 <__divsi3>
    925c:	e2844001 	add	r4, r4, #1
    9260:	e3500000 	cmp	r0, #0
    9264:	e20440ff 	and	r4, r4, #255	; 0xff
    9268:	cafffff9 	bgt	9254 <countDigits+0x14>
    926c:	e1a00004 	mov	r0, r4
    9270:	e8bd4070 	pop	{r4, r5, r6, lr}
    9274:	e12fff1e 	bx	lr
    9278:	e3a04000 	mov	r4, #0
    927c:	e1a00004 	mov	r0, r4
    9280:	e8bd4070 	pop	{r4, r5, r6, lr}
    9284:	e12fff1e 	bx	lr

00009288 <countDecDigits>:
    9288:	e92d4ff8 	push	{r3, r4, r5, r6, r7, r8, r9, sl, fp, lr}
    928c:	e1a07001 	mov	r7, r1
    9290:	e1a06000 	mov	r6, r0
    9294:	eb001303 	bl	dea8 <__aeabi_d2iz>
    9298:	e1a05000 	mov	r5, r0
    929c:	eb001150 	bl	d7e4 <__aeabi_i2d>
    92a0:	e1a02000 	mov	r2, r0
    92a4:	e1a03001 	mov	r3, r1
    92a8:	e1a00006 	mov	r0, r6
    92ac:	e1a01007 	mov	r1, r7
    92b0:	eb00107d 	bl	d4ac <__aeabi_dsub>
    92b4:	e3550000 	cmp	r5, #0
    92b8:	e1a06000 	mov	r6, r0
    92bc:	e1a07001 	mov	r7, r1
    92c0:	da000039 	ble	93ac <countDecDigits+0x124>
    92c4:	e3a04000 	mov	r4, #0
    92c8:	e59f30f0 	ldr	r3, [pc, #240]	; 93c0 <countDecDigits+0x138>
    92cc:	e1a00005 	mov	r0, r5
    92d0:	e0852093 	umull	r2, r5, r3, r0
    92d4:	e2844001 	add	r4, r4, #1
    92d8:	e3500009 	cmp	r0, #9
    92dc:	e20440ff 	and	r4, r4, #255	; 0xff
    92e0:	e1a051a5 	lsr	r5, r5, #3
    92e4:	cafffff8 	bgt	92cc <countDecDigits+0x44>
    92e8:	e3540009 	cmp	r4, #9
    92ec:	83a05000 	movhi	r5, #0
    92f0:	93a05001 	movls	r5, #1
    92f4:	e1a00006 	mov	r0, r6
    92f8:	e1a01007 	mov	r1, r7
    92fc:	e28f30b4 	add	r3, pc, #180	; 0xb4
    9300:	e893000c 	ldm	r3, {r2, r3}
    9304:	eb0012e1 	bl	de90 <__aeabi_dcmpgt>
    9308:	e3500000 	cmp	r0, #0
    930c:	11a00005 	movne	r0, r5
    9310:	03a00000 	moveq	r0, #0
    9314:	e3500000 	cmp	r0, #0
    9318:	0a000020 	beq	93a0 <countDecDigits+0x118>
    931c:	e3a08000 	mov	r8, #0
    9320:	e59f909c 	ldr	r9, [pc, #156]	; 93c4 <countDecDigits+0x13c>
    9324:	e28fb08c 	add	fp, pc, #140	; 0x8c
    9328:	e89b0c00 	ldm	fp, {sl, fp}
    932c:	e1a02008 	mov	r2, r8
    9330:	e1a03009 	mov	r3, r9
    9334:	e1a00006 	mov	r0, r6
    9338:	e1a01007 	mov	r1, r7
    933c:	eb001161 	bl	d8c8 <__aeabi_dmul>
    9340:	e1a07001 	mov	r7, r1
    9344:	e1a06000 	mov	r6, r0
    9348:	eb0012d6 	bl	dea8 <__aeabi_d2iz>
    934c:	eb001124 	bl	d7e4 <__aeabi_i2d>
    9350:	e1a02000 	mov	r2, r0
    9354:	e1a03001 	mov	r3, r1
    9358:	e1a00006 	mov	r0, r6
    935c:	e1a01007 	mov	r1, r7
    9360:	eb001051 	bl	d4ac <__aeabi_dsub>
    9364:	e2844001 	add	r4, r4, #1
    9368:	e20440ff 	and	r4, r4, #255	; 0xff
    936c:	e3540009 	cmp	r4, #9
    9370:	e1a0200a 	mov	r2, sl
    9374:	e1a0300b 	mov	r3, fp
    9378:	83a05000 	movhi	r5, #0
    937c:	93a05001 	movls	r5, #1
    9380:	e1a06000 	mov	r6, r0
    9384:	e1a07001 	mov	r7, r1
    9388:	eb0012c0 	bl	de90 <__aeabi_dcmpgt>
    938c:	e3500000 	cmp	r0, #0
    9390:	11a00005 	movne	r0, r5
    9394:	03a00000 	moveq	r0, #0
    9398:	e3500000 	cmp	r0, #0
    939c:	1affffe2 	bne	932c <countDecDigits+0xa4>
    93a0:	e1a00004 	mov	r0, r4
    93a4:	e8bd4ff8 	pop	{r3, r4, r5, r6, r7, r8, r9, sl, fp, lr}
    93a8:	e12fff1e 	bx	lr
    93ac:	e3a05001 	mov	r5, #1
    93b0:	e3a04000 	mov	r4, #0
    93b4:	eaffffce 	b	92f4 <countDecDigits+0x6c>
    93b8:	d9d7bdbb 	ldmible	r7, {r0, r1, r3, r4, r5, r7, r8, sl, fp, ip, sp, pc}^
    93bc:	3ddb7cdf 	ldclcc	12, cr7, [fp, #892]	; 0x37c
    93c0:	cccccccd 	stclgt	12, cr12, [ip], {205}	; 0xcd
    93c4:	40240000 	eormi	r0, r4, r0

000093c8 <memInit>:
    93c8:	e3a01000 	mov	r1, #0
    93cc:	e59f3010 	ldr	r3, [pc, #16]	; 93e4 <memInit+0x1c>
    93d0:	e59f2010 	ldr	r2, [pc, #16]	; 93e8 <memInit+0x20>
    93d4:	e5e31001 	strb	r1, [r3, #1]!
    93d8:	e1530002 	cmp	r3, r2
    93dc:	1afffffc 	bne	93d4 <memInit+0xc>
    93e0:	e12fff1e 	bx	lr
    93e4:	0002438f 	andeq	r4, r2, pc, lsl #7
    93e8:	00f9c54f 	rscseq	ip, r9, pc, asr #10

000093ec <mmu_section>:
    93ec:	e92d4010 	push	{r4, lr}
    93f0:	e1a03a20 	lsr	r3, r0, #20
    93f4:	e1a03a03 	lsl	r3, r3, #20
    93f8:	e1a00a20 	lsr	r0, r0, #20
    93fc:	e1831001 	orr	r1, r3, r1
    9400:	e1a00100 	lsl	r0, r0, #2
    9404:	e3800702 	orr	r0, r0, #524288	; 0x80000
    9408:	e3811002 	orr	r1, r1, #2
    940c:	ebfffb1c 	bl	8084 <PUT32>
    9410:	e3a00000 	mov	r0, #0
    9414:	e8bd4010 	pop	{r4, lr}
    9418:	e12fff1e 	bx	lr

0000941c <cacheInit>:
    941c:	e92d4010 	push	{r4, lr}
    9420:	e3a04000 	mov	r4, #0
    9424:	e1a00a24 	lsr	r0, r4, #20
    9428:	e1a00100 	lsl	r0, r0, #2
    942c:	e384100e 	orr	r1, r4, #14
    9430:	e3800702 	orr	r0, r0, #524288	; 0x80000
    9434:	e2844601 	add	r4, r4, #1048576	; 0x100000
    9438:	ebfffb11 	bl	8084 <PUT32>
    943c:	e3540202 	cmp	r4, #536870912	; 0x20000000
    9440:	1afffff7 	bne	9424 <cacheInit+0x8>
    9444:	e3a01222 	mov	r1, #536870914	; 0x20000002
    9448:	e59f0028 	ldr	r0, [pc, #40]	; 9478 <cacheInit+0x5c>
    944c:	ebfffb0c 	bl	8084 <PUT32>
    9450:	e59f1024 	ldr	r1, [pc, #36]	; 947c <cacheInit+0x60>
    9454:	e59f0024 	ldr	r0, [pc, #36]	; 9480 <cacheInit+0x64>
    9458:	ebfffb09 	bl	8084 <PUT32>
    945c:	e59f0020 	ldr	r0, [pc, #32]	; 9484 <cacheInit+0x68>
    9460:	e59f1020 	ldr	r1, [pc, #32]	; 9488 <cacheInit+0x6c>
    9464:	ebfffb06 	bl	8084 <PUT32>
    9468:	ebfffb12 	bl	80b8 <start_l1cache>
    946c:	e3a00000 	mov	r0, #0
    9470:	e8bd4010 	pop	{r4, lr}
    9474:	e12fff1e 	bx	lr
    9478:	00080800 	andeq	r0, r8, r0, lsl #16
    947c:	20100002 	andscs	r0, r0, r2
    9480:	00080804 	andeq	r0, r8, r4, lsl #16
    9484:	00080808 	andeq	r0, r8, r8, lsl #16
    9488:	20200002 	eorcs	r0, r0, r2

0000948c <checkAtPos>:
    948c:	e3a03001 	mov	r3, #1
    9490:	e59f201c 	ldr	r2, [pc, #28]	; 94b4 <checkAtPos+0x28>
    9494:	e7d20000 	ldrb	r0, [r2, r0]
    9498:	e1a01113 	lsl	r1, r3, r1
    949c:	e0000001 	and	r0, r0, r1
    94a0:	e20110ff 	and	r1, r1, #255	; 0xff
    94a4:	e0403001 	sub	r3, r0, r1
    94a8:	e2730000 	rsbs	r0, r3, #0
    94ac:	e0a00003 	adc	r0, r0, r3
    94b0:	e12fff1e 	bx	lr
    94b4:	00024390 	muleq	r2, r0, r3

000094b8 <setHigh>:
    94b8:	e3a0c001 	mov	ip, #1
    94bc:	e59f200c 	ldr	r2, [pc, #12]	; 94d0 <setHigh+0x18>
    94c0:	e7d23000 	ldrb	r3, [r2, r0]
    94c4:	e183311c 	orr	r3, r3, ip, lsl r1
    94c8:	e7c23000 	strb	r3, [r2, r0]
    94cc:	e12fff1e 	bx	lr
    94d0:	00024390 	muleq	r2, r0, r3

000094d4 <setLow>:
    94d4:	e3a0c001 	mov	ip, #1
    94d8:	e59f200c 	ldr	r2, [pc, #12]	; 94ec <setLow+0x18>
    94dc:	e7d23000 	ldrb	r3, [r2, r0]
    94e0:	e1c3311c 	bic	r3, r3, ip, lsl r1
    94e4:	e7c23000 	strb	r3, [r2, r0]
    94e8:	e12fff1e 	bx	lr
    94ec:	00024390 	muleq	r2, r0, r3

000094f0 <setMem>:
    94f0:	e21220ff 	ands	r2, r2, #255	; 0xff
    94f4:	012fff1e 	bxeq	lr
    94f8:	e52de004 	push	{lr}		; (str lr, [sp, #-4]!)
    94fc:	e3a0e001 	mov	lr, #1
    9500:	e59fc030 	ldr	ip, [pc, #48]	; 9538 <setMem+0x48>
    9504:	e7dc3000 	ldrb	r3, [ip, r0]
    9508:	e3510007 	cmp	r1, #7
    950c:	e183311e 	orr	r3, r3, lr, lsl r1
    9510:	e2422001 	sub	r2, r2, #1
    9514:	12811001 	addne	r1, r1, #1
    9518:	03a01000 	moveq	r1, #0
    951c:	e7cc3000 	strb	r3, [ip, r0]
    9520:	120110ff 	andne	r1, r1, #255	; 0xff
    9524:	02800001 	addeq	r0, r0, #1
    9528:	e21220ff 	ands	r2, r2, #255	; 0xff
    952c:	1afffff4 	bne	9504 <setMem+0x14>
    9530:	e49de004 	pop	{lr}		; (ldr lr, [sp], #4)
    9534:	e12fff1e 	bx	lr
    9538:	00024390 	muleq	r2, r0, r3

0000953c <clearMem>:
    953c:	e3520000 	cmp	r2, #0
    9540:	d12fff1e 	bxle	lr
    9544:	e52de004 	push	{lr}		; (str lr, [sp, #-4]!)
    9548:	e3a0e001 	mov	lr, #1
    954c:	e59fc02c 	ldr	ip, [pc, #44]	; 9580 <clearMem+0x44>
    9550:	e7dc3000 	ldrb	r3, [ip, r0]
    9554:	e3510007 	cmp	r1, #7
    9558:	e1c3311e 	bic	r3, r3, lr, lsl r1
    955c:	12811001 	addne	r1, r1, #1
    9560:	03a01000 	moveq	r1, #0
    9564:	e7cc3000 	strb	r3, [ip, r0]
    9568:	120110ff 	andne	r1, r1, #255	; 0xff
    956c:	02800001 	addeq	r0, r0, #1
    9570:	e2522001 	subs	r2, r2, #1
    9574:	1afffff5 	bne	9550 <clearMem+0x14>
    9578:	e49de004 	pop	{lr}		; (ldr lr, [sp], #4)
    957c:	e12fff1e 	bx	lr
    9580:	00024390 	muleq	r2, r0, r3

00009584 <encodeAddress>:
    9584:	e59f300c 	ldr	r3, [pc, #12]	; 9598 <encodeAddress+0x14>
    9588:	e0803003 	add	r3, r0, r3
    958c:	e0811183 	add	r1, r1, r3, lsl #3
    9590:	e1a00101 	lsl	r0, r1, #2
    9594:	e12fff1e 	bx	lr
    9598:	0007fc4e 	andeq	pc, r7, lr, asr #24

0000959c <malloc>:
    959c:	e92d41f0 	push	{r4, r5, r6, r7, r8, lr}
    95a0:	e3a05000 	mov	r5, #0
    95a4:	e2806003 	add	r6, r0, #3
    95a8:	e1500005 	cmp	r0, r5
    95ac:	b1a00006 	movlt	r0, r6
    95b0:	e3a04001 	mov	r4, #1
    95b4:	e1a0e005 	mov	lr, r5
    95b8:	e1a01005 	mov	r1, r5
    95bc:	e1a06140 	asr	r6, r0, #2
    95c0:	e59f70dc 	ldr	r7, [pc, #220]	; 96a4 <malloc+0x108>
    95c4:	e59f80dc 	ldr	r8, [pc, #220]	; 96a8 <malloc+0x10c>
    95c8:	e0866004 	add	r6, r6, r4
    95cc:	e5f7c001 	ldrb	ip, [r7, #1]!
    95d0:	e35c00ff 	cmp	ip, #255	; 0xff
    95d4:	0a000015 	beq	9630 <malloc+0x94>
    95d8:	e1560001 	cmp	r6, r1
    95dc:	da000018 	ble	9644 <malloc+0xa8>
    95e0:	e3a03000 	mov	r3, #0
    95e4:	e1a02314 	lsl	r2, r4, r3
    95e8:	e20200ff 	and	r0, r2, #255	; 0xff
    95ec:	e002200c 	and	r2, r2, ip
    95f0:	e1500002 	cmp	r0, r2
    95f4:	03a01000 	moveq	r1, #0
    95f8:	e20320ff 	and	r2, r3, #255	; 0xff
    95fc:	0a000002 	beq	960c <malloc+0x70>
    9600:	e3510000 	cmp	r1, #0
    9604:	01a0e002 	moveq	lr, r2
    9608:	e2811001 	add	r1, r1, #1
    960c:	e2833001 	add	r3, r3, #1
    9610:	e3530008 	cmp	r3, #8
    9614:	1afffff2 	bne	95e4 <malloc+0x48>
    9618:	e2855001 	add	r5, r5, #1
    961c:	e1550008 	cmp	r5, r8
    9620:	1affffe9 	bne	95cc <malloc+0x30>
    9624:	e3a00000 	mov	r0, #0
    9628:	e8bd41f0 	pop	{r4, r5, r6, r7, r8, lr}
    962c:	e12fff1e 	bx	lr
    9630:	e2855001 	add	r5, r5, #1
    9634:	e1550008 	cmp	r5, r8
    9638:	e3a01000 	mov	r1, #0
    963c:	1affffe2 	bne	95cc <malloc+0x30>
    9640:	eafffff7 	b	9624 <malloc+0x88>
    9644:	e21630ff 	ands	r3, r6, #255	; 0xff
    9648:	0a00000f 	beq	968c <malloc+0xf0>
    964c:	e1a01005 	mov	r1, r5
    9650:	e1a0200e 	mov	r2, lr
    9654:	e3a04001 	mov	r4, #1
    9658:	e59f004c 	ldr	r0, [pc, #76]	; 96ac <malloc+0x110>
    965c:	ea000000 	b	9664 <malloc+0xc8>
    9660:	e7d0c001 	ldrb	ip, [r0, r1]
    9664:	e3520007 	cmp	r2, #7
    9668:	e18cc214 	orr	ip, ip, r4, lsl r2
    966c:	e2433001 	sub	r3, r3, #1
    9670:	12822001 	addne	r2, r2, #1
    9674:	03a02000 	moveq	r2, #0
    9678:	e7c0c001 	strb	ip, [r0, r1]
    967c:	120220ff 	andne	r2, r2, #255	; 0xff
    9680:	02811001 	addeq	r1, r1, #1
    9684:	e21330ff 	ands	r3, r3, #255	; 0xff
    9688:	1afffff4 	bne	9660 <malloc+0xc4>
    968c:	e59f001c 	ldr	r0, [pc, #28]	; 96b0 <malloc+0x114>
    9690:	e0850000 	add	r0, r5, r0
    9694:	e08e0180 	add	r0, lr, r0, lsl #3
    9698:	e1a00100 	lsl	r0, r0, #2
    969c:	e8bd41f0 	pop	{r4, r5, r6, r7, r8, lr}
    96a0:	e12fff1e 	bx	lr
    96a4:	0002438f 	andeq	r4, r2, pc, lsl #7
    96a8:	00f781c0 	rscseq	r8, r7, r0, asr #3
    96ac:	00024390 	muleq	r2, r0, r3
    96b0:	0007fc4e 	andeq	pc, r7, lr, asr #24

000096b4 <free>:
    96b4:	e3510000 	cmp	r1, #0
    96b8:	e2813003 	add	r3, r1, #3
    96bc:	a1a03001 	movge	r3, r1
    96c0:	e3110003 	tst	r1, #3
    96c4:	e1a03143 	asr	r3, r3, #2
    96c8:	12833001 	addne	r3, r3, #1
    96cc:	e3510000 	cmp	r1, #0
    96d0:	e1a001a3 	lsr	r0, r3, #3
    96d4:	e2033007 	and	r3, r3, #7
    96d8:	d12fff1e 	bxle	lr
    96dc:	e52de004 	push	{lr}		; (str lr, [sp, #-4]!)
    96e0:	e3a0e001 	mov	lr, #1
    96e4:	e59fc02c 	ldr	ip, [pc, #44]	; 9718 <free+0x64>
    96e8:	e7dc2000 	ldrb	r2, [ip, r0]
    96ec:	e3530007 	cmp	r3, #7
    96f0:	e1c2231e 	bic	r2, r2, lr, lsl r3
    96f4:	12833001 	addne	r3, r3, #1
    96f8:	03a03000 	moveq	r3, #0
    96fc:	e7cc2000 	strb	r2, [ip, r0]
    9700:	120330ff 	andne	r3, r3, #255	; 0xff
    9704:	02800001 	addeq	r0, r0, #1
    9708:	e2511001 	subs	r1, r1, #1
    970c:	1afffff5 	bne	96e8 <free+0x34>
    9710:	e49de004 	pop	{lr}		; (ldr lr, [sp], #4)
    9714:	e12fff1e 	bx	lr
    9718:	00024390 	muleq	r2, r0, r3

0000971c <GraphInputHandler>:
    971c:	e12fff1e 	bx	lr

00009720 <clearMenu>:
    9720:	e92d41f0 	push	{r4, r5, r6, r7, r8, lr}
    9724:	e3a04000 	mov	r4, #0
    9728:	e5901004 	ldr	r1, [r0, #4]
    972c:	e1510004 	cmp	r1, r4
    9730:	e1a06000 	mov	r6, r0
    9734:	e5c04000 	strb	r4, [r0]
    9738:	da000014 	ble	9790 <clearMenu+0x70>
    973c:	e1a07004 	mov	r7, r4
    9740:	e5903008 	ldr	r3, [r0, #8]
    9744:	e0845084 	add	r5, r4, r4, lsl #1
    9748:	e0832105 	add	r2, r3, r5, lsl #2
    974c:	e7931105 	ldr	r1, [r3, r5, lsl #2]
    9750:	e5920004 	ldr	r0, [r2, #4]
    9754:	ebffffd6 	bl	96b4 <free>
    9758:	e5961004 	ldr	r1, [r6, #4]
    975c:	e5963008 	ldr	r3, [r6, #8]
    9760:	e2844001 	add	r4, r4, #1
    9764:	e1510004 	cmp	r1, r4
    9768:	e7837105 	str	r7, [r3, r5, lsl #2]
    976c:	cafffff4 	bgt	9744 <clearMenu+0x24>
    9770:	e0811081 	add	r1, r1, r1, lsl #1
    9774:	e1a00003 	mov	r0, r3
    9778:	e1a01101 	lsl	r1, r1, #2
    977c:	ebffffcc 	bl	96b4 <free>
    9780:	e3a03000 	mov	r3, #0
    9784:	e5863004 	str	r3, [r6, #4]
    9788:	e8bd41f0 	pop	{r4, r5, r6, r7, r8, lr}
    978c:	e12fff1e 	bx	lr
    9790:	e5903008 	ldr	r3, [r0, #8]
    9794:	eafffff5 	b	9770 <clearMenu+0x50>

00009798 <mathMenuInit>:
    9798:	e92d47f0 	push	{r4, r5, r6, r7, r8, r9, sl, lr}
    979c:	e1a06000 	mov	r6, r0
    97a0:	ebffffde 	bl	9720 <clearMenu>
    97a4:	e3a02001 	mov	r2, #1
    97a8:	e3a03003 	mov	r3, #3
    97ac:	e3a00024 	mov	r0, #36	; 0x24
    97b0:	e5c62000 	strb	r2, [r6]
    97b4:	e5863004 	str	r3, [r6, #4]
    97b8:	ebffff77 	bl	959c <malloc>
    97bc:	e5961004 	ldr	r1, [r6, #4]
    97c0:	e3510000 	cmp	r1, #0
    97c4:	e5860008 	str	r0, [r6, #8]
    97c8:	da00005b 	ble	993c <mathMenuInit+0x1a4>
    97cc:	e1a0c000 	mov	ip, r0
    97d0:	e3a08000 	mov	r8, #0
    97d4:	e3a0500a 	mov	r5, #10
    97d8:	e59f716c 	ldr	r7, [pc, #364]	; 994c <mathMenuInit+0x1b4>
    97dc:	e0884088 	add	r4, r8, r8, lsl #1
    97e0:	e78c5104 	str	r5, [ip, r4, lsl #2]
    97e4:	e3a00028 	mov	r0, #40	; 0x28
    97e8:	e08c9104 	add	r9, ip, r4, lsl #2
    97ec:	ebffff6a 	bl	959c <malloc>
    97f0:	e596c008 	ldr	ip, [r6, #8]
    97f4:	e79c2104 	ldr	r2, [ip, r4, lsl #2]
    97f8:	e1a04104 	lsl	r4, r4, #2
    97fc:	e3520000 	cmp	r2, #0
    9800:	e5890004 	str	r0, [r9, #4]
    9804:	e08c4004 	add	r4, ip, r4
    9808:	da000005 	ble	9824 <mathMenuInit+0x8c>
    980c:	e5943004 	ldr	r3, [r4, #4]
    9810:	e2433004 	sub	r3, r3, #4
    9814:	e0832102 	add	r2, r3, r2, lsl #2
    9818:	e5a37004 	str	r7, [r3, #4]!
    981c:	e1520003 	cmp	r2, r3
    9820:	1afffffc 	bne	9818 <mathMenuInit+0x80>
    9824:	e5964004 	ldr	r4, [r6, #4]
    9828:	e2888001 	add	r8, r8, #1
    982c:	e1540008 	cmp	r4, r8
    9830:	caffffe9 	bgt	97dc <mathMenuInit+0x44>
    9834:	e1a01004 	mov	r1, r4
    9838:	e3a00d05 	mov	r0, #320	; 0x140
    983c:	eb000ec5 	bl	d358 <__divsi3>
    9840:	e3540000 	cmp	r4, #0
    9844:	e1a07000 	mov	r7, r0
    9848:	da000013 	ble	989c <mathMenuInit+0x104>
    984c:	e1a09800 	lsl	r9, r0, #16
    9850:	e1a09829 	lsr	r9, r9, #16
    9854:	e1a05009 	mov	r5, r9
    9858:	e3a08000 	mov	r8, #0
    985c:	e3a04000 	mov	r4, #0
    9860:	e2888001 	add	r8, r8, #1
    9864:	e1a01804 	lsl	r1, r4, #16
    9868:	e3a020ff 	mov	r2, #255	; 0xff
    986c:	e1a00005 	mov	r0, r5
    9870:	e1a01821 	lsr	r1, r1, #16
    9874:	e2844001 	add	r4, r4, #1
    9878:	ebfffcb1 	bl	8b44 <FBWrite>
    987c:	e354001e 	cmp	r4, #30
    9880:	1afffff7 	bne	9864 <mathMenuInit+0xcc>
    9884:	e5963004 	ldr	r3, [r6, #4]
    9888:	e0895005 	add	r5, r9, r5
    988c:	e1a05805 	lsl	r5, r5, #16
    9890:	e1580003 	cmp	r8, r3
    9894:	e1a05825 	lsr	r5, r5, #16
    9898:	baffffef 	blt	985c <mathMenuInit+0xc4>
    989c:	ebfffd08 	bl	8cc4 <FBCharReset>
    98a0:	ebfffcba 	bl	8b90 <FBCharNewline>
    98a4:	e3570000 	cmp	r7, #0
    98a8:	e2875007 	add	r5, r7, #7
    98ac:	a1a05007 	movge	r5, r7
    98b0:	e5963004 	ldr	r3, [r6, #4]
    98b4:	e3530000 	cmp	r3, #0
    98b8:	c3a08000 	movgt	r8, #0
    98bc:	e1a051c5 	asr	r5, r5, #3
    98c0:	da000012 	ble	9910 <mathMenuInit+0x178>
    98c4:	e3570007 	cmp	r7, #7
    98c8:	c3a04000 	movgt	r4, #0
    98cc:	ca000004 	bgt	98e4 <mathMenuInit+0x14c>
    98d0:	ea00000b 	b	9904 <mathMenuInit+0x16c>
    98d4:	e2844001 	add	r4, r4, #1
    98d8:	ebfffca3 	bl	8b6c <FBCharAdvance>
    98dc:	e1550004 	cmp	r5, r4
    98e0:	da000006 	ble	9900 <mathMenuInit+0x168>
    98e4:	e3540001 	cmp	r4, #1
    98e8:	1afffff9 	bne	98d4 <mathMenuInit+0x13c>
    98ec:	e3a00041 	mov	r0, #65	; 0x41
    98f0:	e2844001 	add	r4, r4, #1
    98f4:	ebfffcb2 	bl	8bc4 <FBWriteChar>
    98f8:	e1550004 	cmp	r5, r4
    98fc:	cafffff8 	bgt	98e4 <mathMenuInit+0x14c>
    9900:	e5963004 	ldr	r3, [r6, #4]
    9904:	e2888001 	add	r8, r8, #1
    9908:	e1530008 	cmp	r3, r8
    990c:	caffffec 	bgt	98c4 <mathMenuInit+0x12c>
    9910:	e3a04000 	mov	r4, #0
    9914:	e1a00804 	lsl	r0, r4, #16
    9918:	e3a020ff 	mov	r2, #255	; 0xff
    991c:	e3a0101e 	mov	r1, #30
    9920:	e1a00820 	lsr	r0, r0, #16
    9924:	e2844001 	add	r4, r4, #1
    9928:	ebfffc85 	bl	8b44 <FBWrite>
    992c:	e3540d05 	cmp	r4, #320	; 0x140
    9930:	1afffff7 	bne	9914 <mathMenuInit+0x17c>
    9934:	e8bd47f0 	pop	{r4, r5, r6, r7, r8, r9, sl, lr}
    9938:	e12fff1e 	bx	lr
    993c:	e3a00d05 	mov	r0, #320	; 0x140
    9940:	eb000e84 	bl	d358 <__divsi3>
    9944:	e1a07000 	mov	r7, r0
    9948:	eaffffd3 	b	989c <mathMenuInit+0x104>
    994c:	0000e050 	andeq	lr, r0, r0, asr r0

00009950 <varsMenuInit>:
    9950:	e92d47f0 	push	{r4, r5, r6, r7, r8, r9, sl, lr}
    9954:	e1a06000 	mov	r6, r0
    9958:	ebffff70 	bl	9720 <clearMenu>
    995c:	e3a02001 	mov	r2, #1
    9960:	e3a03002 	mov	r3, #2
    9964:	e3a00018 	mov	r0, #24
    9968:	e5c62000 	strb	r2, [r6]
    996c:	e5863004 	str	r3, [r6, #4]
    9970:	ebffff09 	bl	959c <malloc>
    9974:	e5961004 	ldr	r1, [r6, #4]
    9978:	e3510000 	cmp	r1, #0
    997c:	e5860008 	str	r0, [r6, #8]
    9980:	da000059 	ble	9aec <varsMenuInit+0x19c>
    9984:	e1a0c000 	mov	ip, r0
    9988:	e3a08000 	mov	r8, #0
    998c:	e3a0500a 	mov	r5, #10
    9990:	e59f7164 	ldr	r7, [pc, #356]	; 9afc <varsMenuInit+0x1ac>
    9994:	e0884088 	add	r4, r8, r8, lsl #1
    9998:	e78c5104 	str	r5, [ip, r4, lsl #2]
    999c:	e3a00028 	mov	r0, #40	; 0x28
    99a0:	e08c9104 	add	r9, ip, r4, lsl #2
    99a4:	ebfffefc 	bl	959c <malloc>
    99a8:	e596c008 	ldr	ip, [r6, #8]
    99ac:	e79c2104 	ldr	r2, [ip, r4, lsl #2]
    99b0:	e1a04104 	lsl	r4, r4, #2
    99b4:	e3520000 	cmp	r2, #0
    99b8:	e5890004 	str	r0, [r9, #4]
    99bc:	e08c4004 	add	r4, ip, r4
    99c0:	da000005 	ble	99dc <varsMenuInit+0x8c>
    99c4:	e5943004 	ldr	r3, [r4, #4]
    99c8:	e2433004 	sub	r3, r3, #4
    99cc:	e0832102 	add	r2, r3, r2, lsl #2
    99d0:	e5a37004 	str	r7, [r3, #4]!
    99d4:	e1520003 	cmp	r2, r3
    99d8:	1afffffc 	bne	99d0 <varsMenuInit+0x80>
    99dc:	e5964004 	ldr	r4, [r6, #4]
    99e0:	e2888001 	add	r8, r8, #1
    99e4:	e1540008 	cmp	r4, r8
    99e8:	caffffe9 	bgt	9994 <varsMenuInit+0x44>
    99ec:	e1a01004 	mov	r1, r4
    99f0:	e3a00d05 	mov	r0, #320	; 0x140
    99f4:	eb000e57 	bl	d358 <__divsi3>
    99f8:	e3540000 	cmp	r4, #0
    99fc:	e1a07000 	mov	r7, r0
    9a00:	da000013 	ble	9a54 <varsMenuInit+0x104>
    9a04:	e1a09800 	lsl	r9, r0, #16
    9a08:	e1a09829 	lsr	r9, r9, #16
    9a0c:	e1a05009 	mov	r5, r9
    9a10:	e3a08000 	mov	r8, #0
    9a14:	e3a04000 	mov	r4, #0
    9a18:	e2888001 	add	r8, r8, #1
    9a1c:	e1a01804 	lsl	r1, r4, #16
    9a20:	e3a020ff 	mov	r2, #255	; 0xff
    9a24:	e1a00005 	mov	r0, r5
    9a28:	e1a01821 	lsr	r1, r1, #16
    9a2c:	e2844001 	add	r4, r4, #1
    9a30:	ebfffc43 	bl	8b44 <FBWrite>
    9a34:	e354001e 	cmp	r4, #30
    9a38:	1afffff7 	bne	9a1c <varsMenuInit+0xcc>
    9a3c:	e5963004 	ldr	r3, [r6, #4]
    9a40:	e0895005 	add	r5, r9, r5
    9a44:	e1a05805 	lsl	r5, r5, #16
    9a48:	e1580003 	cmp	r8, r3
    9a4c:	e1a05825 	lsr	r5, r5, #16
    9a50:	baffffef 	blt	9a14 <varsMenuInit+0xc4>
    9a54:	ebfffc9a 	bl	8cc4 <FBCharReset>
    9a58:	ebfffc4c 	bl	8b90 <FBCharNewline>
    9a5c:	e3570000 	cmp	r7, #0
    9a60:	e2875007 	add	r5, r7, #7
    9a64:	a1a05007 	movge	r5, r7
    9a68:	e5963004 	ldr	r3, [r6, #4]
    9a6c:	e3530000 	cmp	r3, #0
    9a70:	a3a08000 	movge	r8, #0
    9a74:	e1a051c5 	asr	r5, r5, #3
    9a78:	ba000012 	blt	9ac8 <varsMenuInit+0x178>
    9a7c:	e3570007 	cmp	r7, #7
    9a80:	c3a04000 	movgt	r4, #0
    9a84:	ca000004 	bgt	9a9c <varsMenuInit+0x14c>
    9a88:	ea00000b 	b	9abc <varsMenuInit+0x16c>
    9a8c:	e2844001 	add	r4, r4, #1
    9a90:	ebfffc35 	bl	8b6c <FBCharAdvance>
    9a94:	e1550004 	cmp	r5, r4
    9a98:	da000006 	ble	9ab8 <varsMenuInit+0x168>
    9a9c:	e3540001 	cmp	r4, #1
    9aa0:	1afffff9 	bne	9a8c <varsMenuInit+0x13c>
    9aa4:	e3a00041 	mov	r0, #65	; 0x41
    9aa8:	e2844001 	add	r4, r4, #1
    9aac:	ebfffc44 	bl	8bc4 <FBWriteChar>
    9ab0:	e1550004 	cmp	r5, r4
    9ab4:	cafffff8 	bgt	9a9c <varsMenuInit+0x14c>
    9ab8:	e5963004 	ldr	r3, [r6, #4]
    9abc:	e2888001 	add	r8, r8, #1
    9ac0:	e1530008 	cmp	r3, r8
    9ac4:	aaffffec 	bge	9a7c <varsMenuInit+0x12c>
    9ac8:	e3a04d05 	mov	r4, #320	; 0x140
    9acc:	e3a020ff 	mov	r2, #255	; 0xff
    9ad0:	e3a0101e 	mov	r1, #30
    9ad4:	e3a00d05 	mov	r0, #320	; 0x140
    9ad8:	ebfffc19 	bl	8b44 <FBWrite>
    9adc:	e2544001 	subs	r4, r4, #1
    9ae0:	1afffff9 	bne	9acc <varsMenuInit+0x17c>
    9ae4:	e8bd47f0 	pop	{r4, r5, r6, r7, r8, r9, sl, lr}
    9ae8:	e12fff1e 	bx	lr
    9aec:	e3a00d05 	mov	r0, #320	; 0x140
    9af0:	eb000e18 	bl	d358 <__divsi3>
    9af4:	e1a07000 	mov	r7, r0
    9af8:	eaffffd5 	b	9a54 <varsMenuInit+0x104>
    9afc:	0000e050 	andeq	lr, r0, r0, asr r0

00009b00 <statMenuInit>:
    9b00:	e92d47f0 	push	{r4, r5, r6, r7, r8, r9, sl, lr}
    9b04:	e1a06000 	mov	r6, r0
    9b08:	ebffff04 	bl	9720 <clearMenu>
    9b0c:	e3a02001 	mov	r2, #1
    9b10:	e3a03003 	mov	r3, #3
    9b14:	e3a00024 	mov	r0, #36	; 0x24
    9b18:	e5c62000 	strb	r2, [r6]
    9b1c:	e5863004 	str	r3, [r6, #4]
    9b20:	ebfffe9d 	bl	959c <malloc>
    9b24:	e5961004 	ldr	r1, [r6, #4]
    9b28:	e3510000 	cmp	r1, #0
    9b2c:	e5860008 	str	r0, [r6, #8]
    9b30:	da000059 	ble	9c9c <statMenuInit+0x19c>
    9b34:	e1a0c000 	mov	ip, r0
    9b38:	e3a08000 	mov	r8, #0
    9b3c:	e3a0500a 	mov	r5, #10
    9b40:	e59f7164 	ldr	r7, [pc, #356]	; 9cac <statMenuInit+0x1ac>
    9b44:	e0884088 	add	r4, r8, r8, lsl #1
    9b48:	e78c5104 	str	r5, [ip, r4, lsl #2]
    9b4c:	e3a00028 	mov	r0, #40	; 0x28
    9b50:	e08c9104 	add	r9, ip, r4, lsl #2
    9b54:	ebfffe90 	bl	959c <malloc>
    9b58:	e596c008 	ldr	ip, [r6, #8]
    9b5c:	e79c2104 	ldr	r2, [ip, r4, lsl #2]
    9b60:	e1a04104 	lsl	r4, r4, #2
    9b64:	e3520000 	cmp	r2, #0
    9b68:	e5890004 	str	r0, [r9, #4]
    9b6c:	e08c4004 	add	r4, ip, r4
    9b70:	da000005 	ble	9b8c <statMenuInit+0x8c>
    9b74:	e5943004 	ldr	r3, [r4, #4]
    9b78:	e2433004 	sub	r3, r3, #4
    9b7c:	e0832102 	add	r2, r3, r2, lsl #2
    9b80:	e5a37004 	str	r7, [r3, #4]!
    9b84:	e1520003 	cmp	r2, r3
    9b88:	1afffffc 	bne	9b80 <statMenuInit+0x80>
    9b8c:	e5964004 	ldr	r4, [r6, #4]
    9b90:	e2888001 	add	r8, r8, #1
    9b94:	e1540008 	cmp	r4, r8
    9b98:	caffffe9 	bgt	9b44 <statMenuInit+0x44>
    9b9c:	e1a01004 	mov	r1, r4
    9ba0:	e3a00d05 	mov	r0, #320	; 0x140
    9ba4:	eb000deb 	bl	d358 <__divsi3>
    9ba8:	e3540000 	cmp	r4, #0
    9bac:	e1a07000 	mov	r7, r0
    9bb0:	da000013 	ble	9c04 <statMenuInit+0x104>
    9bb4:	e1a09800 	lsl	r9, r0, #16
    9bb8:	e1a09829 	lsr	r9, r9, #16
    9bbc:	e1a05009 	mov	r5, r9
    9bc0:	e3a08000 	mov	r8, #0
    9bc4:	e3a04000 	mov	r4, #0
    9bc8:	e2888001 	add	r8, r8, #1
    9bcc:	e1a01804 	lsl	r1, r4, #16
    9bd0:	e3a020ff 	mov	r2, #255	; 0xff
    9bd4:	e1a00005 	mov	r0, r5
    9bd8:	e1a01821 	lsr	r1, r1, #16
    9bdc:	e2844001 	add	r4, r4, #1
    9be0:	ebfffbd7 	bl	8b44 <FBWrite>
    9be4:	e354001e 	cmp	r4, #30
    9be8:	1afffff7 	bne	9bcc <statMenuInit+0xcc>
    9bec:	e5963004 	ldr	r3, [r6, #4]
    9bf0:	e0895005 	add	r5, r9, r5
    9bf4:	e1a05805 	lsl	r5, r5, #16
    9bf8:	e1580003 	cmp	r8, r3
    9bfc:	e1a05825 	lsr	r5, r5, #16
    9c00:	baffffef 	blt	9bc4 <statMenuInit+0xc4>
    9c04:	ebfffc2e 	bl	8cc4 <FBCharReset>
    9c08:	ebfffbe0 	bl	8b90 <FBCharNewline>
    9c0c:	e3570000 	cmp	r7, #0
    9c10:	e2875007 	add	r5, r7, #7
    9c14:	a1a05007 	movge	r5, r7
    9c18:	e5963004 	ldr	r3, [r6, #4]
    9c1c:	e3530000 	cmp	r3, #0
    9c20:	a3a08000 	movge	r8, #0
    9c24:	e1a051c5 	asr	r5, r5, #3
    9c28:	ba000012 	blt	9c78 <statMenuInit+0x178>
    9c2c:	e3570007 	cmp	r7, #7
    9c30:	c3a04000 	movgt	r4, #0
    9c34:	ca000004 	bgt	9c4c <statMenuInit+0x14c>
    9c38:	ea00000b 	b	9c6c <statMenuInit+0x16c>
    9c3c:	e2844001 	add	r4, r4, #1
    9c40:	ebfffbc9 	bl	8b6c <FBCharAdvance>
    9c44:	e1550004 	cmp	r5, r4
    9c48:	da000006 	ble	9c68 <statMenuInit+0x168>
    9c4c:	e3540001 	cmp	r4, #1
    9c50:	1afffff9 	bne	9c3c <statMenuInit+0x13c>
    9c54:	e3a00041 	mov	r0, #65	; 0x41
    9c58:	e2844001 	add	r4, r4, #1
    9c5c:	ebfffbd8 	bl	8bc4 <FBWriteChar>
    9c60:	e1550004 	cmp	r5, r4
    9c64:	cafffff8 	bgt	9c4c <statMenuInit+0x14c>
    9c68:	e5963004 	ldr	r3, [r6, #4]
    9c6c:	e2888001 	add	r8, r8, #1
    9c70:	e1530008 	cmp	r3, r8
    9c74:	aaffffec 	bge	9c2c <statMenuInit+0x12c>
    9c78:	e3a04d05 	mov	r4, #320	; 0x140
    9c7c:	e3a020ff 	mov	r2, #255	; 0xff
    9c80:	e3a0101e 	mov	r1, #30
    9c84:	e3a00d05 	mov	r0, #320	; 0x140
    9c88:	ebfffbad 	bl	8b44 <FBWrite>
    9c8c:	e2544001 	subs	r4, r4, #1
    9c90:	1afffff9 	bne	9c7c <statMenuInit+0x17c>
    9c94:	e8bd47f0 	pop	{r4, r5, r6, r7, r8, r9, sl, lr}
    9c98:	e12fff1e 	bx	lr
    9c9c:	e3a00d05 	mov	r0, #320	; 0x140
    9ca0:	eb000dac 	bl	d358 <__divsi3>
    9ca4:	e1a07000 	mov	r7, r0
    9ca8:	eaffffd5 	b	9c04 <statMenuInit+0x104>
    9cac:	0000e050 	andeq	lr, r0, r0, asr r0

00009cb0 <funcMenuInit>:
    9cb0:	e92d47f0 	push	{r4, r5, r6, r7, r8, r9, sl, lr}
    9cb4:	e1a06000 	mov	r6, r0
    9cb8:	ebfffe98 	bl	9720 <clearMenu>
    9cbc:	e3a03001 	mov	r3, #1
    9cc0:	e3a00024 	mov	r0, #36	; 0x24
    9cc4:	e5c63000 	strb	r3, [r6]
    9cc8:	e5863004 	str	r3, [r6, #4]
    9ccc:	ebfffe32 	bl	959c <malloc>
    9cd0:	e5961004 	ldr	r1, [r6, #4]
    9cd4:	e3510000 	cmp	r1, #0
    9cd8:	e5860008 	str	r0, [r6, #8]
    9cdc:	da000059 	ble	9e48 <funcMenuInit+0x198>
    9ce0:	e1a0c000 	mov	ip, r0
    9ce4:	e3a08000 	mov	r8, #0
    9ce8:	e3a05005 	mov	r5, #5
    9cec:	e59f7164 	ldr	r7, [pc, #356]	; 9e58 <funcMenuInit+0x1a8>
    9cf0:	e0884088 	add	r4, r8, r8, lsl #1
    9cf4:	e78c5104 	str	r5, [ip, r4, lsl #2]
    9cf8:	e3a00014 	mov	r0, #20
    9cfc:	e08c9104 	add	r9, ip, r4, lsl #2
    9d00:	ebfffe25 	bl	959c <malloc>
    9d04:	e596c008 	ldr	ip, [r6, #8]
    9d08:	e79c2104 	ldr	r2, [ip, r4, lsl #2]
    9d0c:	e1a04104 	lsl	r4, r4, #2
    9d10:	e3520000 	cmp	r2, #0
    9d14:	e5890004 	str	r0, [r9, #4]
    9d18:	e08c4004 	add	r4, ip, r4
    9d1c:	da000005 	ble	9d38 <funcMenuInit+0x88>
    9d20:	e5943004 	ldr	r3, [r4, #4]
    9d24:	e2433004 	sub	r3, r3, #4
    9d28:	e0832102 	add	r2, r3, r2, lsl #2
    9d2c:	e5a37004 	str	r7, [r3, #4]!
    9d30:	e1520003 	cmp	r2, r3
    9d34:	1afffffc 	bne	9d2c <funcMenuInit+0x7c>
    9d38:	e5964004 	ldr	r4, [r6, #4]
    9d3c:	e2888001 	add	r8, r8, #1
    9d40:	e1540008 	cmp	r4, r8
    9d44:	caffffe9 	bgt	9cf0 <funcMenuInit+0x40>
    9d48:	e1a01004 	mov	r1, r4
    9d4c:	e3a00d05 	mov	r0, #320	; 0x140
    9d50:	eb000d80 	bl	d358 <__divsi3>
    9d54:	e3540000 	cmp	r4, #0
    9d58:	e1a07000 	mov	r7, r0
    9d5c:	da000013 	ble	9db0 <funcMenuInit+0x100>
    9d60:	e1a09800 	lsl	r9, r0, #16
    9d64:	e1a09829 	lsr	r9, r9, #16
    9d68:	e1a05009 	mov	r5, r9
    9d6c:	e3a08000 	mov	r8, #0
    9d70:	e3a04000 	mov	r4, #0
    9d74:	e2888001 	add	r8, r8, #1
    9d78:	e1a01804 	lsl	r1, r4, #16
    9d7c:	e3a020ff 	mov	r2, #255	; 0xff
    9d80:	e1a00005 	mov	r0, r5
    9d84:	e1a01821 	lsr	r1, r1, #16
    9d88:	e2844001 	add	r4, r4, #1
    9d8c:	ebfffb6c 	bl	8b44 <FBWrite>
    9d90:	e354001e 	cmp	r4, #30
    9d94:	1afffff7 	bne	9d78 <funcMenuInit+0xc8>
    9d98:	e5963004 	ldr	r3, [r6, #4]
    9d9c:	e0895005 	add	r5, r9, r5
    9da0:	e1a05805 	lsl	r5, r5, #16
    9da4:	e1580003 	cmp	r8, r3
    9da8:	e1a05825 	lsr	r5, r5, #16
    9dac:	baffffef 	blt	9d70 <funcMenuInit+0xc0>
    9db0:	ebfffbc3 	bl	8cc4 <FBCharReset>
    9db4:	ebfffb75 	bl	8b90 <FBCharNewline>
    9db8:	e3570000 	cmp	r7, #0
    9dbc:	e2875007 	add	r5, r7, #7
    9dc0:	a1a05007 	movge	r5, r7
    9dc4:	e5963004 	ldr	r3, [r6, #4]
    9dc8:	e3530000 	cmp	r3, #0
    9dcc:	a3a08000 	movge	r8, #0
    9dd0:	e1a051c5 	asr	r5, r5, #3
    9dd4:	ba000012 	blt	9e24 <funcMenuInit+0x174>
    9dd8:	e3570007 	cmp	r7, #7
    9ddc:	c3a04000 	movgt	r4, #0
    9de0:	ca000004 	bgt	9df8 <funcMenuInit+0x148>
    9de4:	ea00000b 	b	9e18 <funcMenuInit+0x168>
    9de8:	e2844001 	add	r4, r4, #1
    9dec:	ebfffb5e 	bl	8b6c <FBCharAdvance>
    9df0:	e1550004 	cmp	r5, r4
    9df4:	da000006 	ble	9e14 <funcMenuInit+0x164>
    9df8:	e3540001 	cmp	r4, #1
    9dfc:	1afffff9 	bne	9de8 <funcMenuInit+0x138>
    9e00:	e3a00041 	mov	r0, #65	; 0x41
    9e04:	e2844001 	add	r4, r4, #1
    9e08:	ebfffb6d 	bl	8bc4 <FBWriteChar>
    9e0c:	e1550004 	cmp	r5, r4
    9e10:	cafffff8 	bgt	9df8 <funcMenuInit+0x148>
    9e14:	e5963004 	ldr	r3, [r6, #4]
    9e18:	e2888001 	add	r8, r8, #1
    9e1c:	e1530008 	cmp	r3, r8
    9e20:	aaffffec 	bge	9dd8 <funcMenuInit+0x128>
    9e24:	e3a04d05 	mov	r4, #320	; 0x140
    9e28:	e3a020ff 	mov	r2, #255	; 0xff
    9e2c:	e3a0101e 	mov	r1, #30
    9e30:	e3a00d05 	mov	r0, #320	; 0x140
    9e34:	ebfffb42 	bl	8b44 <FBWrite>
    9e38:	e2544001 	subs	r4, r4, #1
    9e3c:	1afffff9 	bne	9e28 <funcMenuInit+0x178>
    9e40:	e8bd47f0 	pop	{r4, r5, r6, r7, r8, r9, sl, lr}
    9e44:	e12fff1e 	bx	lr
    9e48:	e3a00d05 	mov	r0, #320	; 0x140
    9e4c:	eb000d41 	bl	d358 <__divsi3>
    9e50:	e1a07000 	mov	r7, r0
    9e54:	eaffffd5 	b	9db0 <funcMenuInit+0x100>
    9e58:	0000e058 	andeq	lr, r0, r8, asr r0

00009e5c <INFtoRPN>:
    9e5c:	e1a03000 	mov	r3, r0
    9e60:	e92d4ff0 	push	{r4, r5, r6, r7, r8, r9, sl, fp, lr}
    9e64:	e1a00001 	mov	r0, r1
    9e68:	e24dd024 	sub	sp, sp, #36	; 0x24
    9e6c:	e1a06001 	mov	r6, r1
    9e70:	e1a09002 	mov	r9, r2
    9e74:	e58d301c 	str	r3, [sp, #28]
    9e78:	eb0007e0 	bl	be00 <strlen>
    9e7c:	e1a04000 	mov	r4, r0
    9e80:	e58d0008 	str	r0, [sp, #8]
    9e84:	e1a00200 	lsl	r0, r0, #4
    9e88:	ebfffdc3 	bl	959c <malloc>
    9e8c:	e1a03000 	mov	r3, r0
    9e90:	e1a02184 	lsl	r2, r4, #3
    9e94:	e1a00002 	mov	r0, r2
    9e98:	e58d2018 	str	r2, [sp, #24]
    9e9c:	e58d3000 	str	r3, [sp]
    9ea0:	ebfffdbd 	bl	959c <malloc>
    9ea4:	e1a03000 	mov	r3, r0
    9ea8:	e1a00004 	mov	r0, r4
    9eac:	e58d3004 	str	r3, [sp, #4]
    9eb0:	ebfffdb9 	bl	959c <malloc>
    9eb4:	e3a03000 	mov	r3, #0
    9eb8:	e1540003 	cmp	r4, r3
    9ebc:	e1a0a000 	mov	sl, r0
    9ec0:	e5c03000 	strb	r3, [r0]
    9ec4:	da000111 	ble	a310 <INFtoRPN+0x4b4>
    9ec8:	e3e08000 	mvn	r8, #0
    9ecc:	e1a02004 	mov	r2, r4
    9ed0:	e0866008 	add	r6, r6, r8
    9ed4:	e1a0b003 	mov	fp, r3
    9ed8:	e1a04003 	mov	r4, r3
    9edc:	e0867002 	add	r7, r6, r2
    9ee0:	ea000003 	b	9ef4 <INFtoRPN+0x98>
    9ee4:	e1a0000a 	mov	r0, sl
    9ee8:	eb000772 	bl	bcb8 <strcharcat>
    9eec:	e1560007 	cmp	r6, r7
    9ef0:	0a00001f 	beq	9f74 <INFtoRPN+0x118>
    9ef4:	e5f61001 	ldrb	r1, [r6, #1]!
    9ef8:	e351005f 	cmp	r1, #95	; 0x5f
    9efc:	1351002e 	cmpne	r1, #46	; 0x2e
    9f00:	03a03001 	moveq	r3, #1
    9f04:	13a03000 	movne	r3, #0
    9f08:	e2412030 	sub	r2, r1, #48	; 0x30
    9f0c:	e3520009 	cmp	r2, #9
    9f10:	93833001 	orrls	r3, r3, #1
    9f14:	e3530000 	cmp	r3, #0
    9f18:	1afffff1 	bne	9ee4 <INFtoRPN+0x88>
    9f1c:	e3590004 	cmp	r9, #4
    9f20:	03510058 	cmpeq	r1, #88	; 0x58
    9f24:	03a05001 	moveq	r5, #1
    9f28:	13a05000 	movne	r5, #0
    9f2c:	0a0000c7 	beq	a250 <INFtoRPN+0x3f4>
    9f30:	e2413041 	sub	r3, r1, #65	; 0x41
    9f34:	e3530019 	cmp	r3, #25
    9f38:	9a000042 	bls	a048 <INFtoRPN+0x1ec>
    9f3c:	e3510060 	cmp	r1, #96	; 0x60
    9f40:	9a000063 	bls	a0d4 <INFtoRPN+0x278>
    9f44:	e1a00001 	mov	r0, r1
    9f48:	eb000e1c 	bl	d7c0 <__aeabi_ui2d>
    9f4c:	e59d2008 	ldr	r2, [sp, #8]
    9f50:	e2843001 	add	r3, r4, #1
    9f54:	e1520003 	cmp	r2, r3
    9f58:	daffffe3 	ble	9eec <INFtoRPN+0x90>
    9f5c:	e59d2004 	ldr	r2, [sp, #4]
    9f60:	e1560007 	cmp	r6, r7
    9f64:	e0822183 	add	r2, r2, r3, lsl #3
    9f68:	e1a04003 	mov	r4, r3
    9f6c:	e8820003 	stm	r2, {r0, r1}
    9f70:	1affffdf 	bne	9ef4 <INFtoRPN+0x98>
    9f74:	e58d400c 	str	r4, [sp, #12]
    9f78:	e1a0000a 	mov	r0, sl
    9f7c:	eb00079f 	bl	be00 <strlen>
    9f80:	e3500000 	cmp	r0, #0
    9f84:	da000008 	ble	9fac <INFtoRPN+0x150>
    9f88:	e1a0000a 	mov	r0, sl
    9f8c:	eb0007a5 	bl	be28 <atod>
    9f90:	e3a02000 	mov	r2, #0
    9f94:	e59dc000 	ldr	ip, [sp]
    9f98:	e08c320b 	add	r3, ip, fp, lsl #4
    9f9c:	e78c220b 	str	r2, [ip, fp, lsl #4]
    9fa0:	e5830008 	str	r0, [r3, #8]
    9fa4:	e583100c 	str	r1, [r3, #12]
    9fa8:	e28bb001 	add	fp, fp, #1
    9fac:	e59d3000 	ldr	r3, [sp]
    9fb0:	e083320b 	add	r3, r3, fp, lsl #4
    9fb4:	e58d3010 	str	r3, [sp, #16]
    9fb8:	e59d600c 	ldr	r6, [sp, #12]
    9fbc:	e59d3004 	ldr	r3, [sp, #4]
    9fc0:	e3a08000 	mov	r8, #0
    9fc4:	e59f95c4 	ldr	r9, [pc, #1476]	; a590 <INFtoRPN+0x734>
    9fc8:	e0837186 	add	r7, r3, r6, lsl #3
    9fcc:	ea000007 	b	9ff0 <INFtoRPN+0x194>
    9fd0:	e8970030 	ldm	r7, {r4, r5}
    9fd4:	e1a02008 	mov	r2, r8
    9fd8:	e1a03009 	mov	r3, r9
    9fdc:	e1a00004 	mov	r0, r4
    9fe0:	e1a01005 	mov	r1, r5
    9fe4:	eb000f91 	bl	de30 <__aeabi_dcmpeq>
    9fe8:	e3500000 	cmp	r0, #0
    9fec:	0a00002e 	beq	a0ac <INFtoRPN+0x250>
    9ff0:	e3560000 	cmp	r6, #0
    9ff4:	cafffff5 	bgt	9fd0 <INFtoRPN+0x174>
    9ff8:	e59d300c 	ldr	r3, [sp, #12]
    9ffc:	e59d1018 	ldr	r1, [sp, #24]
    a000:	e59d0004 	ldr	r0, [sp, #4]
    a004:	e3530000 	cmp	r3, #0
    a008:	a08b4003 	addge	r4, fp, r3
    a00c:	b28b4000 	addlt	r4, fp, #0
    a010:	ebfffda7 	bl	96b4 <free>
    a014:	e59d5008 	ldr	r5, [sp, #8]
    a018:	e1a0000a 	mov	r0, sl
    a01c:	e1a01005 	mov	r1, r5
    a020:	ebfffda3 	bl	96b4 <free>
    a024:	e59d301c 	ldr	r3, [sp, #28]
    a028:	e1a00003 	mov	r0, r3
    a02c:	e59d2000 	ldr	r2, [sp]
    a030:	e5834004 	str	r4, [r3, #4]
    a034:	e5835000 	str	r5, [r3]
    a038:	e5832008 	str	r2, [r3, #8]
    a03c:	e28dd024 	add	sp, sp, #36	; 0x24
    a040:	e8bd4ff0 	pop	{r4, r5, r6, r7, r8, r9, sl, fp, lr}
    a044:	e12fff1e 	bx	lr
    a048:	e1a0000a 	mov	r0, sl
    a04c:	eb00076b 	bl	be00 <strlen>
    a050:	e3500000 	cmp	r0, #0
    a054:	da000007 	ble	a078 <INFtoRPN+0x21c>
    a058:	e1a0000a 	mov	r0, sl
    a05c:	eb000771 	bl	be28 <atod>
    a060:	e59d2000 	ldr	r2, [sp]
    a064:	e082320b 	add	r3, r2, fp, lsl #4
    a068:	e782520b 	str	r5, [r2, fp, lsl #4]
    a06c:	e5830008 	str	r0, [r3, #8]
    a070:	e583100c 	str	r1, [r3, #12]
    a074:	e28bb001 	add	fp, fp, #1
    a078:	e59f2514 	ldr	r2, [pc, #1300]	; a594 <INFtoRPN+0x738>
    a07c:	e5d63000 	ldrb	r3, [r6]
    a080:	e0823183 	add	r3, r2, r3, lsl #3
    a084:	e5130204 	ldr	r0, [r3, #-516]	; 0xfffffdfc
    a088:	eb000dd5 	bl	d7e4 <__aeabi_i2d>
    a08c:	e3a02000 	mov	r2, #0
    a090:	e59dc000 	ldr	ip, [sp]
    a094:	e08c320b 	add	r3, ip, fp, lsl #4
    a098:	e78c220b 	str	r2, [ip, fp, lsl #4]
    a09c:	e5830008 	str	r0, [r3, #8]
    a0a0:	e583100c 	str	r1, [r3, #12]
    a0a4:	e28bb001 	add	fp, fp, #1
    a0a8:	eaffff8f 	b	9eec <INFtoRPN+0x90>
    a0ac:	e3a02001 	mov	r2, #1
    a0b0:	e59d3010 	ldr	r3, [sp, #16]
    a0b4:	e5834008 	str	r4, [r3, #8]
    a0b8:	e583500c 	str	r5, [r3, #12]
    a0bc:	e5832000 	str	r2, [r3]
    a0c0:	e2833010 	add	r3, r3, #16
    a0c4:	e58d3010 	str	r3, [sp, #16]
    a0c8:	e2466001 	sub	r6, r6, #1
    a0cc:	e2477008 	sub	r7, r7, #8
    a0d0:	eaffffc6 	b	9ff0 <INFtoRPN+0x194>
    a0d4:	e1a0000a 	mov	r0, sl
    a0d8:	eb000748 	bl	be00 <strlen>
    a0dc:	e3500000 	cmp	r0, #0
    a0e0:	ca000039 	bgt	a1cc <INFtoRPN+0x370>
    a0e4:	e5d60000 	ldrb	r0, [r6]
    a0e8:	e240302b 	sub	r3, r0, #43	; 0x2b
    a0ec:	e31300fd 	tst	r3, #253	; 0xfd
    a0f0:	0a000042 	beq	a200 <INFtoRPN+0x3a4>
    a0f4:	e350002f 	cmp	r0, #47	; 0x2f
    a0f8:	1350002a 	cmpne	r0, #42	; 0x2a
    a0fc:	0a000074 	beq	a2d4 <INFtoRPN+0x478>
    a100:	e350005e 	cmp	r0, #94	; 0x5e
    a104:	0a000084 	beq	a31c <INFtoRPN+0x4c0>
    a108:	e3500028 	cmp	r0, #40	; 0x28
    a10c:	0a000065 	beq	a2a8 <INFtoRPN+0x44c>
    a110:	e3500029 	cmp	r0, #41	; 0x29
    a114:	1affff74 	bne	9eec <INFtoRPN+0x90>
    a118:	e59d3004 	ldr	r3, [sp, #4]
    a11c:	e2842001 	add	r2, r4, #1
    a120:	e0835182 	add	r5, r3, r2, lsl #3
    a124:	e59d2000 	ldr	r2, [sp]
    a128:	e084300b 	add	r3, r4, fp
    a12c:	e082420b 	add	r4, r2, fp, lsl #4
    a130:	e1a02009 	mov	r2, r9
    a134:	e58d6010 	str	r6, [sp, #16]
    a138:	e1a09007 	mov	r9, r7
    a13c:	e1a06003 	mov	r6, r3
    a140:	e1a0700b 	mov	r7, fp
    a144:	e1a0b002 	mov	fp, r2
    a148:	ea000004 	b	a160 <INFtoRPN+0x304>
    a14c:	e3a03001 	mov	r3, #1
    a150:	e8950003 	ldm	r5, {r0, r1}
    a154:	e9040003 	stmdb	r4, {r0, r1}
    a158:	e5043010 	str	r3, [r4, #-16]
    a15c:	e0877003 	add	r7, r7, r3
    a160:	e9350003 	ldmdb	r5!, {r0, r1}
    a164:	eb000f66 	bl	df04 <__aeabi_d2uiz>
    a168:	e20000ff 	and	r0, r0, #255	; 0xff
    a16c:	eb0009ae 	bl	c82c <getPrecedence>
    a170:	e3500009 	cmp	r0, #9
    a174:	e2844010 	add	r4, r4, #16
    a178:	e0462007 	sub	r2, r6, r7
    a17c:	9afffff2 	bls	a14c <INFtoRPN+0x2f0>
    a180:	e1a0100b 	mov	r1, fp
    a184:	e8950018 	ldm	r5, {r3, r4}
    a188:	e1a0b007 	mov	fp, r7
    a18c:	e1a00003 	mov	r0, r3
    a190:	e1a07009 	mov	r7, r9
    a194:	e1a09001 	mov	r9, r1
    a198:	e1a01004 	mov	r1, r4
    a19c:	e58d200c 	str	r2, [sp, #12]
    a1a0:	e59f33e8 	ldr	r3, [pc, #1000]	; a590 <INFtoRPN+0x734>
    a1a4:	e3a02000 	mov	r2, #0
    a1a8:	e59d6010 	ldr	r6, [sp, #16]
    a1ac:	e58d0010 	str	r0, [sp, #16]
    a1b0:	e58d1014 	str	r1, [sp, #20]
    a1b4:	eb000f1d 	bl	de30 <__aeabi_dcmpeq>
    a1b8:	e3500000 	cmp	r0, #0
    a1bc:	0a0000de 	beq	a53c <INFtoRPN+0x6e0>
    a1c0:	e59d300c 	ldr	r3, [sp, #12]
    a1c4:	e2434001 	sub	r4, r3, #1
    a1c8:	eaffff47 	b	9eec <INFtoRPN+0x90>
    a1cc:	e1a0000a 	mov	r0, sl
    a1d0:	eb000714 	bl	be28 <atod>
    a1d4:	e59d2000 	ldr	r2, [sp]
    a1d8:	e082320b 	add	r3, r2, fp, lsl #4
    a1dc:	e782520b 	str	r5, [r2, fp, lsl #4]
    a1e0:	e5830008 	str	r0, [r3, #8]
    a1e4:	e583100c 	str	r1, [r3, #12]
    a1e8:	e5ca5000 	strb	r5, [sl]
    a1ec:	e5d60000 	ldrb	r0, [r6]
    a1f0:	e240302b 	sub	r3, r0, #43	; 0x2b
    a1f4:	e31300fd 	tst	r3, #253	; 0xfd
    a1f8:	e28bb001 	add	fp, fp, #1
    a1fc:	1affffbc 	bne	a0f4 <INFtoRPN+0x298>
    a200:	eb000989 	bl	c82c <getPrecedence>
    a204:	e3540000 	cmp	r4, #0
    a208:	c3a03001 	movgt	r3, #1
    a20c:	d3a03000 	movle	r3, #0
    a210:	e1500008 	cmp	r0, r8
    a214:	c3a03000 	movgt	r3, #0
    a218:	e3530000 	cmp	r3, #0
    a21c:	e1a05004 	mov	r5, r4
    a220:	02844001 	addeq	r4, r4, #1
    a224:	1a00009e 	bne	a4a4 <INFtoRPN+0x648>
    a228:	e5d60000 	ldrb	r0, [r6]
    a22c:	eb000d63 	bl	d7c0 <__aeabi_ui2d>
    a230:	e59d3008 	ldr	r3, [sp, #8]
    a234:	e1530004 	cmp	r3, r4
    a238:	da0000cf 	ble	a57c <INFtoRPN+0x720>
    a23c:	e59d3004 	ldr	r3, [sp, #4]
    a240:	e0833184 	add	r3, r3, r4, lsl #3
    a244:	e3a08000 	mov	r8, #0
    a248:	e8830003 	stm	r3, {r0, r1}
    a24c:	eaffff26 	b	9eec <INFtoRPN+0x90>
    a250:	e1a0000a 	mov	r0, sl
    a254:	e58d300c 	str	r3, [sp, #12]
    a258:	eb0006e8 	bl	be00 <strlen>
    a25c:	e3500000 	cmp	r0, #0
    a260:	ca000003 	bgt	a274 <INFtoRPN+0x418>
    a264:	e5d60000 	ldrb	r0, [r6]
    a268:	eb000d54 	bl	d7c0 <__aeabi_ui2d>
    a26c:	e3a02002 	mov	r2, #2
    a270:	eaffff86 	b	a090 <INFtoRPN+0x234>
    a274:	e1a0000a 	mov	r0, sl
    a278:	eb0006ea 	bl	be28 <atod>
    a27c:	e59dc000 	ldr	ip, [sp]
    a280:	e59d300c 	ldr	r3, [sp, #12]
    a284:	e08c220b 	add	r2, ip, fp, lsl #4
    a288:	e78c320b 	str	r3, [ip, fp, lsl #4]
    a28c:	e5820008 	str	r0, [r2, #8]
    a290:	e582100c 	str	r1, [r2, #12]
    a294:	e5d60000 	ldrb	r0, [r6]
    a298:	eb000d48 	bl	d7c0 <__aeabi_ui2d>
    a29c:	e28bb001 	add	fp, fp, #1
    a2a0:	e3a02002 	mov	r2, #2
    a2a4:	eaffff79 	b	a090 <INFtoRPN+0x234>
    a2a8:	e59d2008 	ldr	r2, [sp, #8]
    a2ac:	e2843001 	add	r3, r4, #1
    a2b0:	e1520003 	cmp	r2, r3
    a2b4:	daffff0c 	ble	9eec <INFtoRPN+0x90>
    a2b8:	e3a00000 	mov	r0, #0
    a2bc:	e59d2004 	ldr	r2, [sp, #4]
    a2c0:	e59f12c8 	ldr	r1, [pc, #712]	; a590 <INFtoRPN+0x734>
    a2c4:	e0822183 	add	r2, r2, r3, lsl #3
    a2c8:	e1a04003 	mov	r4, r3
    a2cc:	e8820003 	stm	r2, {r0, r1}
    a2d0:	eaffff05 	b	9eec <INFtoRPN+0x90>
    a2d4:	eb000954 	bl	c82c <getPrecedence>
    a2d8:	e1500008 	cmp	r0, r8
    a2dc:	da000048 	ble	a404 <INFtoRPN+0x5a8>
    a2e0:	e5d60000 	ldrb	r0, [r6]
    a2e4:	eb000d35 	bl	d7c0 <__aeabi_ui2d>
    a2e8:	e59d2008 	ldr	r2, [sp, #8]
    a2ec:	e2843001 	add	r3, r4, #1
    a2f0:	e1520003 	cmp	r2, r3
    a2f4:	da0000a3 	ble	a588 <INFtoRPN+0x72c>
    a2f8:	e59d2004 	ldr	r2, [sp, #4]
    a2fc:	e0822183 	add	r2, r2, r3, lsl #3
    a300:	e1a04003 	mov	r4, r3
    a304:	e3a08001 	mov	r8, #1
    a308:	e8820003 	stm	r2, {r0, r1}
    a30c:	eafffef6 	b	9eec <INFtoRPN+0x90>
    a310:	e1a0b003 	mov	fp, r3
    a314:	e58d300c 	str	r3, [sp, #12]
    a318:	eaffff16 	b	9f78 <INFtoRPN+0x11c>
    a31c:	eb000942 	bl	c82c <getPrecedence>
    a320:	e1500008 	cmp	r0, r8
    a324:	da00000f 	ble	a368 <INFtoRPN+0x50c>
    a328:	e5d65000 	ldrb	r5, [r6]
    a32c:	e1a00005 	mov	r0, r5
    a330:	eb000d22 	bl	d7c0 <__aeabi_ui2d>
    a334:	e59d2008 	ldr	r2, [sp, #8]
    a338:	e2843001 	add	r3, r4, #1
    a33c:	e1520003 	cmp	r2, r3
    a340:	da000004 	ble	a358 <INFtoRPN+0x4fc>
    a344:	e59d2004 	ldr	r2, [sp, #4]
    a348:	e1a04003 	mov	r4, r3
    a34c:	e0823183 	add	r3, r2, r3, lsl #3
    a350:	e8830003 	stm	r3, {r0, r1}
    a354:	e5d65000 	ldrb	r5, [r6]
    a358:	e1a00005 	mov	r0, r5
    a35c:	eb000932 	bl	c82c <getPrecedence>
    a360:	e1a08000 	mov	r8, r0
    a364:	eafffee0 	b	9eec <INFtoRPN+0x90>
    a368:	e59d2004 	ldr	r2, [sp, #4]
    a36c:	e2843001 	add	r3, r4, #1
    a370:	e0828183 	add	r8, r2, r3, lsl #3
    a374:	e59d3000 	ldr	r3, [sp]
    a378:	e083520b 	add	r5, r3, fp, lsl #4
    a37c:	e084300b 	add	r3, r4, fp
    a380:	e58d700c 	str	r7, [sp, #12]
    a384:	e1a07005 	mov	r7, r5
    a388:	e1a05003 	mov	r5, r3
    a38c:	ea00000b 	b	a3c0 <INFtoRPN+0x564>
    a390:	e8980003 	ldm	r8, {r0, r1}
    a394:	eb000eda 	bl	df04 <__aeabi_d2uiz>
    a398:	e20000ff 	and	r0, r0, #255	; 0xff
    a39c:	eb000922 	bl	c82c <getPrecedence>
    a3a0:	e3500000 	cmp	r0, #0
    a3a4:	e2877010 	add	r7, r7, #16
    a3a8:	0a000013 	beq	a3fc <INFtoRPN+0x5a0>
    a3ac:	e3a03001 	mov	r3, #1
    a3b0:	e8980003 	ldm	r8, {r0, r1}
    a3b4:	e9070003 	stmdb	r7, {r0, r1}
    a3b8:	e5073010 	str	r3, [r7, #-16]
    a3bc:	e2444001 	sub	r4, r4, #1
    a3c0:	e9380003 	ldmdb	r8!, {r0, r1}
    a3c4:	eb000ece 	bl	df04 <__aeabi_d2uiz>
    a3c8:	e20000ff 	and	r0, r0, #255	; 0xff
    a3cc:	eb000916 	bl	c82c <getPrecedence>
    a3d0:	e1a0b000 	mov	fp, r0
    a3d4:	e5d60000 	ldrb	r0, [r6]
    a3d8:	eb000913 	bl	c82c <getPrecedence>
    a3dc:	e15b0000 	cmp	fp, r0
    a3e0:	33a0b000 	movcc	fp, #0
    a3e4:	23a0b001 	movcs	fp, #1
    a3e8:	e3540000 	cmp	r4, #0
    a3ec:	d3a0b000 	movle	fp, #0
    a3f0:	e35b0000 	cmp	fp, #0
    a3f4:	e045b004 	sub	fp, r5, r4
    a3f8:	1affffe4 	bne	a390 <INFtoRPN+0x534>
    a3fc:	e59d700c 	ldr	r7, [sp, #12]
    a400:	eaffffc8 	b	a328 <INFtoRPN+0x4cc>
    a404:	e59d2004 	ldr	r2, [sp, #4]
    a408:	e2843001 	add	r3, r4, #1
    a40c:	e0828183 	add	r8, r2, r3, lsl #3
    a410:	e59d3000 	ldr	r3, [sp]
    a414:	e083520b 	add	r5, r3, fp, lsl #4
    a418:	e08b3004 	add	r3, fp, r4
    a41c:	e58d700c 	str	r7, [sp, #12]
    a420:	e1a07004 	mov	r7, r4
    a424:	e1a04003 	mov	r4, r3
    a428:	ea00000b 	b	a45c <INFtoRPN+0x600>
    a42c:	e8980003 	ldm	r8, {r0, r1}
    a430:	eb000eb3 	bl	df04 <__aeabi_d2uiz>
    a434:	e20000ff 	and	r0, r0, #255	; 0xff
    a438:	eb0008fb 	bl	c82c <getPrecedence>
    a43c:	e3500000 	cmp	r0, #0
    a440:	e2855010 	add	r5, r5, #16
    a444:	0a000013 	beq	a498 <INFtoRPN+0x63c>
    a448:	e3a03001 	mov	r3, #1
    a44c:	e8980003 	ldm	r8, {r0, r1}
    a450:	e9050003 	stmdb	r5, {r0, r1}
    a454:	e5053010 	str	r3, [r5, #-16]
    a458:	e2477001 	sub	r7, r7, #1
    a45c:	e9380003 	ldmdb	r8!, {r0, r1}
    a460:	eb000ea7 	bl	df04 <__aeabi_d2uiz>
    a464:	e20000ff 	and	r0, r0, #255	; 0xff
    a468:	eb0008ef 	bl	c82c <getPrecedence>
    a46c:	e1a0b000 	mov	fp, r0
    a470:	e5d60000 	ldrb	r0, [r6]
    a474:	eb0008ec 	bl	c82c <getPrecedence>
    a478:	e15b0000 	cmp	fp, r0
    a47c:	33a0b000 	movcc	fp, #0
    a480:	23a0b001 	movcs	fp, #1
    a484:	e3570000 	cmp	r7, #0
    a488:	d3a0b000 	movle	fp, #0
    a48c:	e35b0000 	cmp	fp, #0
    a490:	e044b007 	sub	fp, r4, r7
    a494:	1affffe4 	bne	a42c <INFtoRPN+0x5d0>
    a498:	e1a04007 	mov	r4, r7
    a49c:	e59d700c 	ldr	r7, [sp, #12]
    a4a0:	eaffff8e 	b	a2e0 <INFtoRPN+0x484>
    a4a4:	e59d2004 	ldr	r2, [sp, #4]
    a4a8:	e2843001 	add	r3, r4, #1
    a4ac:	e0828183 	add	r8, r2, r3, lsl #3
    a4b0:	e59d2000 	ldr	r2, [sp]
    a4b4:	e08b3005 	add	r3, fp, r5
    a4b8:	e58d700c 	str	r7, [sp, #12]
    a4bc:	e082420b 	add	r4, r2, fp, lsl #4
    a4c0:	e1a07005 	mov	r7, r5
    a4c4:	e1a05003 	mov	r5, r3
    a4c8:	ea00000d 	b	a504 <INFtoRPN+0x6a8>
    a4cc:	e3570000 	cmp	r7, #0
    a4d0:	0a000025 	beq	a56c <INFtoRPN+0x710>
    a4d4:	e8980003 	ldm	r8, {r0, r1}
    a4d8:	eb000e89 	bl	df04 <__aeabi_d2uiz>
    a4dc:	e20000ff 	and	r0, r0, #255	; 0xff
    a4e0:	eb0008d1 	bl	c82c <getPrecedence>
    a4e4:	e3500009 	cmp	r0, #9
    a4e8:	e2844010 	add	r4, r4, #16
    a4ec:	8a00000e 	bhi	a52c <INFtoRPN+0x6d0>
    a4f0:	e3a03001 	mov	r3, #1
    a4f4:	e8980003 	ldm	r8, {r0, r1}
    a4f8:	e9040003 	stmdb	r4, {r0, r1}
    a4fc:	e5043010 	str	r3, [r4, #-16]
    a500:	e2477001 	sub	r7, r7, #1
    a504:	e9380003 	ldmdb	r8!, {r0, r1}
    a508:	eb000e7d 	bl	df04 <__aeabi_d2uiz>
    a50c:	e20000ff 	and	r0, r0, #255	; 0xff
    a510:	eb0008c5 	bl	c82c <getPrecedence>
    a514:	e1a0b000 	mov	fp, r0
    a518:	e5d60000 	ldrb	r0, [r6]
    a51c:	eb0008c2 	bl	c82c <getPrecedence>
    a520:	e15b0000 	cmp	fp, r0
    a524:	e045b007 	sub	fp, r5, r7
    a528:	2affffe7 	bcs	a4cc <INFtoRPN+0x670>
    a52c:	e1a05007 	mov	r5, r7
    a530:	e59d700c 	ldr	r7, [sp, #12]
    a534:	e2854001 	add	r4, r5, #1
    a538:	eaffff3a 	b	a228 <INFtoRPN+0x3cc>
    a53c:	e3a01001 	mov	r1, #1
    a540:	e59d2000 	ldr	r2, [sp]
    a544:	e782120b 	str	r1, [r2, fp, lsl #4]
    a548:	e082320b 	add	r3, r2, fp, lsl #4
    a54c:	e59d200c 	ldr	r2, [sp, #12]
    a550:	e2424001 	sub	r4, r2, #1
    a554:	e28d2010 	add	r2, sp, #16
    a558:	e8920006 	ldm	r2, {r1, r2}
    a55c:	e28bb001 	add	fp, fp, #1
    a560:	e5831008 	str	r1, [r3, #8]
    a564:	e583200c 	str	r2, [r3, #12]
    a568:	eafffe5f 	b	9eec <INFtoRPN+0x90>
    a56c:	e1a05007 	mov	r5, r7
    a570:	e3a04001 	mov	r4, #1
    a574:	e59d700c 	ldr	r7, [sp, #12]
    a578:	eaffff2a 	b	a228 <INFtoRPN+0x3cc>
    a57c:	e1a04005 	mov	r4, r5
    a580:	e3a08000 	mov	r8, #0
    a584:	eafffe58 	b	9eec <INFtoRPN+0x90>
    a588:	e3a08001 	mov	r8, #1
    a58c:	eafffe56 	b	9eec <INFtoRPN+0x90>
    a590:	40440000 	submi	r0, r4, r0
    a594:	000116c0 	andeq	r1, r1, r0, asr #13

0000a598 <EntryInputHandler>:
    a598:	e92d40f0 	push	{r4, r5, r6, r7, lr}
    a59c:	e59f51ec 	ldr	r5, [pc, #492]	; a790 <EntryInputHandler+0x1f8>
    a5a0:	e5d53000 	ldrb	r3, [r5]
    a5a4:	e3530000 	cmp	r3, #0
    a5a8:	e24dd014 	sub	sp, sp, #20
    a5ac:	1a000020 	bne	a634 <EntryInputHandler+0x9c>
    a5b0:	e59f31dc 	ldr	r3, [pc, #476]	; a794 <EntryInputHandler+0x1fc>
    a5b4:	e1a04002 	mov	r4, r2
    a5b8:	e0832390 	umull	r2, r3, r0, r3
    a5bc:	e1a031a3 	lsr	r3, r3, #3
    a5c0:	e0833083 	add	r3, r3, r3, lsl #1
    a5c4:	e0403103 	sub	r3, r0, r3, lsl #2
    a5c8:	e20330ff 	and	r3, r3, #255	; 0xff
    a5cc:	e2432001 	sub	r2, r3, #1
    a5d0:	e3520007 	cmp	r2, #7
    a5d4:	e1a07000 	mov	r7, r0
    a5d8:	e1a06001 	mov	r6, r1
    a5dc:	9a00001b 	bls	a650 <EntryInputHandler+0xb8>
    a5e0:	e3570021 	cmp	r7, #33	; 0x21
    a5e4:	0a000038 	beq	a6cc <EntryInputHandler+0x134>
    a5e8:	e3570014 	cmp	r7, #20
    a5ec:	0a00003f 	beq	a6f0 <EntryInputHandler+0x158>
    a5f0:	e3570020 	cmp	r7, #32
    a5f4:	0a000028 	beq	a69c <EntryInputHandler+0x104>
    a5f8:	e3570012 	cmp	r7, #18
    a5fc:	0a00004f 	beq	a740 <EntryInputHandler+0x1a8>
    a600:	e3570011 	cmp	r7, #17
    a604:	0a000057 	beq	a768 <EntryInputHandler+0x1d0>
    a608:	e357001d 	cmp	r7, #29
    a60c:	0a000041 	beq	a718 <EntryInputHandler+0x180>
    a610:	e59f4180 	ldr	r4, [pc, #384]	; a798 <EntryInputHandler+0x200>
    a614:	e7943107 	ldr	r3, [r4, r7, lsl #2]
    a618:	e5d30000 	ldrb	r0, [r3]
    a61c:	ebfff968 	bl	8bc4 <FBWriteChar>
    a620:	e7943107 	ldr	r3, [r4, r7, lsl #2]
    a624:	e1a00006 	mov	r0, r6
    a628:	e5d31000 	ldrb	r1, [r3]
    a62c:	eb0005a1 	bl	bcb8 <strcharcat>
    a630:	e5d53000 	ldrb	r3, [r5]
    a634:	e3530001 	cmp	r3, #1
    a638:	0a000001 	beq	a644 <EntryInputHandler+0xac>
    a63c:	e3a03000 	mov	r3, #0
    a640:	e5c53000 	strb	r3, [r5]
    a644:	e28dd014 	add	sp, sp, #20
    a648:	e8bd40f0 	pop	{r4, r5, r6, r7, lr}
    a64c:	e12fff1e 	bx	lr
    a650:	e3500014 	cmp	r0, #20
    a654:	13500025 	cmpne	r0, #37	; 0x25
    a658:	03a02001 	moveq	r2, #1
    a65c:	13a02000 	movne	r2, #0
    a660:	e3500020 	cmp	r0, #32
    a664:	03822001 	orreq	r2, r2, #1
    a668:	e3520000 	cmp	r2, #0
    a66c:	1affffdb 	bne	a5e0 <EntryInputHandler+0x48>
    a670:	e2433005 	sub	r3, r3, #5
    a674:	e3530001 	cmp	r3, #1
    a678:	93a03001 	movls	r3, #1
    a67c:	83a03000 	movhi	r3, #0
    a680:	e350000c 	cmp	r0, #12
    a684:	93a03000 	movls	r3, #0
    a688:	e3530000 	cmp	r3, #0
    a68c:	1a00000c 	bne	a6c4 <EntryInputHandler+0x12c>
    a690:	e3500028 	cmp	r0, #40	; 0x28
    a694:	1affffe8 	bne	a63c <EntryInputHandler+0xa4>
    a698:	eaffffdc 	b	a610 <EntryInputHandler+0x78>
    a69c:	e3a01004 	mov	r1, #4
    a6a0:	e59f00f4 	ldr	r0, [pc, #244]	; a79c <EntryInputHandler+0x204>
    a6a4:	ebfff98e 	bl	8ce4 <FBWriteString>
    a6a8:	e59f30e8 	ldr	r3, [pc, #232]	; a798 <EntryInputHandler+0x200>
    a6ac:	e5933080 	ldr	r3, [r3, #128]	; 0x80
    a6b0:	e1a00006 	mov	r0, r6
    a6b4:	e5d31000 	ldrb	r1, [r3]
    a6b8:	eb00057e 	bl	bcb8 <strcharcat>
    a6bc:	e5d53000 	ldrb	r3, [r5]
    a6c0:	eaffffdb 	b	a634 <EntryInputHandler+0x9c>
    a6c4:	e3500021 	cmp	r0, #33	; 0x21
    a6c8:	1affffca 	bne	a5f8 <EntryInputHandler+0x60>
    a6cc:	e28d7004 	add	r7, sp, #4
    a6d0:	e1a01006 	mov	r1, r6
    a6d4:	e1a00007 	mov	r0, r7
    a6d8:	e3a02004 	mov	r2, #4
    a6dc:	ebfffdde 	bl	9e5c <INFtoRPN>
    a6e0:	e8970007 	ldm	r7, {r0, r1, r2}
    a6e4:	e8840007 	stm	r4, {r0, r1, r2}
    a6e8:	e5d53000 	ldrb	r3, [r5]
    a6ec:	eaffffd0 	b	a634 <EntryInputHandler+0x9c>
    a6f0:	e3a01004 	mov	r1, #4
    a6f4:	e59f00a4 	ldr	r0, [pc, #164]	; a7a0 <EntryInputHandler+0x208>
    a6f8:	ebfff979 	bl	8ce4 <FBWriteString>
    a6fc:	e59f3094 	ldr	r3, [pc, #148]	; a798 <EntryInputHandler+0x200>
    a700:	e5933050 	ldr	r3, [r3, #80]	; 0x50
    a704:	e1a00006 	mov	r0, r6
    a708:	e5d31000 	ldrb	r1, [r3]
    a70c:	eb000569 	bl	bcb8 <strcharcat>
    a710:	e5d53000 	ldrb	r3, [r5]
    a714:	eaffffc6 	b	a634 <EntryInputHandler+0x9c>
    a718:	e3a01004 	mov	r1, #4
    a71c:	e59f0080 	ldr	r0, [pc, #128]	; a7a4 <EntryInputHandler+0x20c>
    a720:	ebfff96f 	bl	8ce4 <FBWriteString>
    a724:	e59f306c 	ldr	r3, [pc, #108]	; a798 <EntryInputHandler+0x200>
    a728:	e5933074 	ldr	r3, [r3, #116]	; 0x74
    a72c:	e1a00006 	mov	r0, r6
    a730:	e5d31000 	ldrb	r1, [r3]
    a734:	eb00055f 	bl	bcb8 <strcharcat>
    a738:	e5d53000 	ldrb	r3, [r5]
    a73c:	eaffffbc 	b	a634 <EntryInputHandler+0x9c>
    a740:	e3a01003 	mov	r1, #3
    a744:	e59f005c 	ldr	r0, [pc, #92]	; a7a8 <EntryInputHandler+0x210>
    a748:	ebfff965 	bl	8ce4 <FBWriteString>
    a74c:	e59f3044 	ldr	r3, [pc, #68]	; a798 <EntryInputHandler+0x200>
    a750:	e5933048 	ldr	r3, [r3, #72]	; 0x48
    a754:	e1a00006 	mov	r0, r6
    a758:	e5d31000 	ldrb	r1, [r3]
    a75c:	eb000555 	bl	bcb8 <strcharcat>
    a760:	e5d53000 	ldrb	r3, [r5]
    a764:	eaffffb2 	b	a634 <EntryInputHandler+0x9c>
    a768:	e3a01004 	mov	r1, #4
    a76c:	e59f0038 	ldr	r0, [pc, #56]	; a7ac <EntryInputHandler+0x214>
    a770:	ebfff95b 	bl	8ce4 <FBWriteString>
    a774:	e59f301c 	ldr	r3, [pc, #28]	; a798 <EntryInputHandler+0x200>
    a778:	e5933044 	ldr	r3, [r3, #68]	; 0x44
    a77c:	e1a00006 	mov	r0, r6
    a780:	e5d31000 	ldrb	r1, [r3]
    a784:	eb00054b 	bl	bcb8 <strcharcat>
    a788:	e5d53000 	ldrb	r3, [r5]
    a78c:	eaffffa8 	b	a634 <EntryInputHandler+0x9c>
    a790:	00f9c550 	rscseq	ip, r9, r0, asr r5
    a794:	aaaaaaab 	bge	feab5248 <shift+0xfdb18cf8>
    a798:	0000f5dc 	ldrdeq	pc, [r0], -ip
    a79c:	0000e064 	andeq	lr, r0, r4, rrx
    a7a0:	0000e05c 	andeq	lr, r0, ip, asr r0
    a7a4:	0000e078 	andeq	lr, r0, r8, ror r0
    a7a8:	0000e06c 	andeq	lr, r0, ip, rrx
    a7ac:	0000e070 	andeq	lr, r0, r0, ror r0

0000a7b0 <pop>:
    a7b0:	e1a03000 	mov	r3, r0
    a7b4:	e5902004 	ldr	r2, [r0, #4]
    a7b8:	e5901008 	ldr	r1, [r0, #8]
    a7bc:	e0811182 	add	r1, r1, r2, lsl #3
    a7c0:	e2422001 	sub	r2, r2, #1
    a7c4:	e8910003 	ldm	r1, {r0, r1}
    a7c8:	e5832004 	str	r2, [r3, #4]
    a7cc:	e12fff1e 	bx	lr

0000a7d0 <push>:
    a7d0:	e92d0030 	push	{r4, r5}
    a7d4:	e1a04002 	mov	r4, r2
    a7d8:	e1a05003 	mov	r5, r3
    a7dc:	e890000c 	ldm	r0, {r2, r3}
    a7e0:	e2833001 	add	r3, r3, #1
    a7e4:	e1530002 	cmp	r3, r2
    a7e8:	aa000006 	bge	a808 <push+0x38>
    a7ec:	e5902008 	ldr	r2, [r0, #8]
    a7f0:	e5803004 	str	r3, [r0, #4]
    a7f4:	e3a00000 	mov	r0, #0
    a7f8:	e0822183 	add	r2, r2, r3, lsl #3
    a7fc:	e8820030 	stm	r2, {r4, r5}
    a800:	e8bd0030 	pop	{r4, r5}
    a804:	e12fff1e 	bx	lr
    a808:	e3e00000 	mvn	r0, #0
    a80c:	eafffffb 	b	a800 <push+0x30>

0000a810 <peek>:
    a810:	e990000c 	ldmib	r0, {r2, r3}
    a814:	e0833182 	add	r3, r3, r2, lsl #3
    a818:	e8930003 	ldm	r3, {r0, r1}
    a81c:	e12fff1e 	bx	lr

0000a820 <dequeue>:
    a820:	e92d40f0 	push	{r4, r5, r6, r7, lr}
    a824:	e1a05000 	mov	r5, r0
    a828:	e9911080 	ldmib	r1, {r7, ip}
    a82c:	e1a06001 	mov	r6, r1
    a830:	e89c000f 	ldm	ip, {r0, r1, r2, r3}
    a834:	e3570001 	cmp	r7, #1
    a838:	e885000f 	stm	r5, {r0, r1, r2, r3}
    a83c:	da000007 	ble	a860 <dequeue+0x40>
    a840:	e24c4010 	sub	r4, ip, #16
    a844:	e0844207 	add	r4, r4, r7, lsl #4
    a848:	e28ce010 	add	lr, ip, #16
    a84c:	e89e000f 	ldm	lr, {r0, r1, r2, r3}
    a850:	e15e0004 	cmp	lr, r4
    a854:	e88c000f 	stm	ip, {r0, r1, r2, r3}
    a858:	e1a0c00e 	mov	ip, lr
    a85c:	1afffff9 	bne	a848 <dequeue+0x28>
    a860:	e2477001 	sub	r7, r7, #1
    a864:	e1a00005 	mov	r0, r5
    a868:	e5867004 	str	r7, [r6, #4]
    a86c:	e8bd40f0 	pop	{r4, r5, r6, r7, lr}
    a870:	e12fff1e 	bx	lr

0000a874 <RPNResolve>:
    a874:	e92d47f0 	push	{r4, r5, r6, r7, r8, r9, sl, lr}
    a878:	e24dd020 	sub	sp, sp, #32
    a87c:	e28d8004 	add	r8, sp, #4
    a880:	e8880007 	stm	r8, {r0, r1, r2}
    a884:	e59f02f8 	ldr	r0, [pc, #760]	; ab84 <RPNResolve+0x310>
    a888:	ebfffb43 	bl	959c <malloc>
    a88c:	e59da008 	ldr	sl, [sp, #8]
    a890:	e35a0000 	cmp	sl, #0
    a894:	e1a09000 	mov	r9, r0
    a898:	da00006b 	ble	aa4c <RPNResolve+0x1d8>
    a89c:	e3a05000 	mov	r5, #0
    a8a0:	e1a04005 	mov	r4, r5
    a8a4:	ea000007 	b	a8c8 <RPNResolve+0x54>
    a8a8:	e2853001 	add	r3, r5, #1
    a8ac:	e35300fe 	cmp	r3, #254	; 0xfe
    a8b0:	d1a05003 	movle	r5, r3
    a8b4:	d0892183 	addle	r2, r9, r3, lsl #3
    a8b8:	d88200c0 	stmle	r2, {r6, r7}
    a8bc:	e2844001 	add	r4, r4, #1
    a8c0:	e15a0004 	cmp	sl, r4
    a8c4:	0a00001f 	beq	a948 <RPNResolve+0xd4>
    a8c8:	e1a01008 	mov	r1, r8
    a8cc:	e28d0010 	add	r0, sp, #16
    a8d0:	ebffffd2 	bl	a820 <dequeue>
    a8d4:	e59d3010 	ldr	r3, [sp, #16]
    a8d8:	e3530000 	cmp	r3, #0
    a8dc:	e28d7018 	add	r7, sp, #24
    a8e0:	e89700c0 	ldm	r7, {r6, r7}
    a8e4:	0affffef 	beq	a8a8 <RPNResolve+0x34>
    a8e8:	e3530001 	cmp	r3, #1
    a8ec:	1afffff2 	bne	a8bc <RPNResolve+0x48>
    a8f0:	e3a02000 	mov	r2, #0
    a8f4:	e1a00006 	mov	r0, r6
    a8f8:	e1a01007 	mov	r1, r7
    a8fc:	e59f3284 	ldr	r3, [pc, #644]	; ab88 <RPNResolve+0x314>
    a900:	eb000d4a 	bl	de30 <__aeabi_dcmpeq>
    a904:	e3500000 	cmp	r0, #0
    a908:	0a000018 	beq	a970 <RPNResolve+0xfc>
    a90c:	e1a03185 	lsl	r3, r5, #3
    a910:	e2436008 	sub	r6, r3, #8
    a914:	e0891003 	add	r1, r9, r3
    a918:	e0896006 	add	r6, r9, r6
    a91c:	e896000c 	ldm	r6, {r2, r3}
    a920:	e8910003 	ldm	r1, {r0, r1}
    a924:	eb000ae1 	bl	d4b0 <__adddf3>
    a928:	e2453001 	sub	r3, r5, #1
    a92c:	e35300fe 	cmp	r3, #254	; 0xfe
    a930:	ca00001f 	bgt	a9b4 <RPNResolve+0x140>
    a934:	e2844001 	add	r4, r4, #1
    a938:	e15a0004 	cmp	sl, r4
    a93c:	e1a05003 	mov	r5, r3
    a940:	e8860003 	stm	r6, {r0, r1}
    a944:	1affffdf 	bne	a8c8 <RPNResolve+0x54>
    a948:	e0895185 	add	r5, r9, r5, lsl #3
    a94c:	e8950030 	ldm	r5, {r4, r5}
    a950:	e1a00009 	mov	r0, r9
    a954:	e59f1228 	ldr	r1, [pc, #552]	; ab84 <RPNResolve+0x310>
    a958:	ebfffb55 	bl	96b4 <free>
    a95c:	e1a00004 	mov	r0, r4
    a960:	e1a01005 	mov	r1, r5
    a964:	e28dd020 	add	sp, sp, #32
    a968:	e8bd47f0 	pop	{r4, r5, r6, r7, r8, r9, sl, lr}
    a96c:	e12fff1e 	bx	lr
    a970:	e3a02000 	mov	r2, #0
    a974:	e1a00006 	mov	r0, r6
    a978:	e1a01007 	mov	r1, r7
    a97c:	e59f3208 	ldr	r3, [pc, #520]	; ab8c <RPNResolve+0x318>
    a980:	eb000d2a 	bl	de30 <__aeabi_dcmpeq>
    a984:	e3500000 	cmp	r0, #0
    a988:	0a00000b 	beq	a9bc <RPNResolve+0x148>
    a98c:	e1a03185 	lsl	r3, r5, #3
    a990:	e2436008 	sub	r6, r3, #8
    a994:	e0896006 	add	r6, r9, r6
    a998:	e0893003 	add	r3, r9, r3
    a99c:	e893000c 	ldm	r3, {r2, r3}
    a9a0:	e8960003 	ldm	r6, {r0, r1}
    a9a4:	eb000ac0 	bl	d4ac <__aeabi_dsub>
    a9a8:	e2453001 	sub	r3, r5, #1
    a9ac:	e35300fe 	cmp	r3, #254	; 0xfe
    a9b0:	daffffdf 	ble	a934 <RPNResolve+0xc0>
    a9b4:	e2455002 	sub	r5, r5, #2
    a9b8:	eaffffbf 	b	a8bc <RPNResolve+0x48>
    a9bc:	e3a02000 	mov	r2, #0
    a9c0:	e1a00006 	mov	r0, r6
    a9c4:	e1a01007 	mov	r1, r7
    a9c8:	e59f31c0 	ldr	r3, [pc, #448]	; ab90 <RPNResolve+0x31c>
    a9cc:	eb000d17 	bl	de30 <__aeabi_dcmpeq>
    a9d0:	e3500000 	cmp	r0, #0
    a9d4:	1a000011 	bne	aa20 <RPNResolve+0x1ac>
    a9d8:	e3a02000 	mov	r2, #0
    a9dc:	e1a00006 	mov	r0, r6
    a9e0:	e1a01007 	mov	r1, r7
    a9e4:	e59f31a8 	ldr	r3, [pc, #424]	; ab94 <RPNResolve+0x320>
    a9e8:	eb000d10 	bl	de30 <__aeabi_dcmpeq>
    a9ec:	e3500000 	cmp	r0, #0
    a9f0:	0a000017 	beq	aa54 <RPNResolve+0x1e0>
    a9f4:	e1a03185 	lsl	r3, r5, #3
    a9f8:	e2436008 	sub	r6, r3, #8
    a9fc:	e0896006 	add	r6, r9, r6
    aa00:	e0893003 	add	r3, r9, r3
    aa04:	e893000c 	ldm	r3, {r2, r3}
    aa08:	e8960003 	ldm	r6, {r0, r1}
    aa0c:	eb000c51 	bl	db58 <__aeabi_ddiv>
    aa10:	e2453001 	sub	r3, r5, #1
    aa14:	e35300fe 	cmp	r3, #254	; 0xfe
    aa18:	daffffc5 	ble	a934 <RPNResolve+0xc0>
    aa1c:	eaffffe4 	b	a9b4 <RPNResolve+0x140>
    aa20:	e1a03185 	lsl	r3, r5, #3
    aa24:	e2436008 	sub	r6, r3, #8
    aa28:	e0891003 	add	r1, r9, r3
    aa2c:	e0896006 	add	r6, r9, r6
    aa30:	e896000c 	ldm	r6, {r2, r3}
    aa34:	e8910003 	ldm	r1, {r0, r1}
    aa38:	eb000ba2 	bl	d8c8 <__aeabi_dmul>
    aa3c:	e2453001 	sub	r3, r5, #1
    aa40:	e35300fe 	cmp	r3, #254	; 0xfe
    aa44:	daffffba 	ble	a934 <RPNResolve+0xc0>
    aa48:	eaffffd9 	b	a9b4 <RPNResolve+0x140>
    aa4c:	e1a05000 	mov	r5, r0
    aa50:	eaffffbd 	b	a94c <RPNResolve+0xd8>
    aa54:	e3a02000 	mov	r2, #0
    aa58:	e1a00006 	mov	r0, r6
    aa5c:	e1a01007 	mov	r1, r7
    aa60:	e59f3130 	ldr	r3, [pc, #304]	; ab98 <RPNResolve+0x324>
    aa64:	eb000cf1 	bl	de30 <__aeabi_dcmpeq>
    aa68:	e3500000 	cmp	r0, #0
    aa6c:	1a00003e 	bne	ab6c <RPNResolve+0x2f8>
    aa70:	e3a02000 	mov	r2, #0
    aa74:	e1a00006 	mov	r0, r6
    aa78:	e1a01007 	mov	r1, r7
    aa7c:	e59f3118 	ldr	r3, [pc, #280]	; ab9c <RPNResolve+0x328>
    aa80:	eb000cea 	bl	de30 <__aeabi_dcmpeq>
    aa84:	e3500000 	cmp	r0, #0
    aa88:	1a000030 	bne	ab50 <RPNResolve+0x2dc>
    aa8c:	e3a02000 	mov	r2, #0
    aa90:	e1a00006 	mov	r0, r6
    aa94:	e1a01007 	mov	r1, r7
    aa98:	e59f3100 	ldr	r3, [pc, #256]	; aba0 <RPNResolve+0x32c>
    aa9c:	eb000ce3 	bl	de30 <__aeabi_dcmpeq>
    aaa0:	e3500000 	cmp	r0, #0
    aaa4:	1a000022 	bne	ab34 <RPNResolve+0x2c0>
    aaa8:	e3a02000 	mov	r2, #0
    aaac:	e1a00006 	mov	r0, r6
    aab0:	e1a01007 	mov	r1, r7
    aab4:	e59f30e8 	ldr	r3, [pc, #232]	; aba4 <RPNResolve+0x330>
    aab8:	eb000cdc 	bl	de30 <__aeabi_dcmpeq>
    aabc:	e3500000 	cmp	r0, #0
    aac0:	1a00001b 	bne	ab34 <RPNResolve+0x2c0>
    aac4:	e3a02000 	mov	r2, #0
    aac8:	e1a00006 	mov	r0, r6
    aacc:	e1a01007 	mov	r1, r7
    aad0:	e59f30d0 	ldr	r3, [pc, #208]	; aba8 <RPNResolve+0x334>
    aad4:	eb000cd5 	bl	de30 <__aeabi_dcmpeq>
    aad8:	e3500000 	cmp	r0, #0
    aadc:	1a000014 	bne	ab34 <RPNResolve+0x2c0>
    aae0:	e3a02000 	mov	r2, #0
    aae4:	e1a00006 	mov	r0, r6
    aae8:	e1a01007 	mov	r1, r7
    aaec:	e59f30b8 	ldr	r3, [pc, #184]	; abac <RPNResolve+0x338>
    aaf0:	eb000cce 	bl	de30 <__aeabi_dcmpeq>
    aaf4:	e3500000 	cmp	r0, #0
    aaf8:	1a00000d 	bne	ab34 <RPNResolve+0x2c0>
    aafc:	e3a02000 	mov	r2, #0
    ab00:	e1a00006 	mov	r0, r6
    ab04:	e1a01007 	mov	r1, r7
    ab08:	e59f30a0 	ldr	r3, [pc, #160]	; abb0 <RPNResolve+0x33c>
    ab0c:	eb000cc7 	bl	de30 <__aeabi_dcmpeq>
    ab10:	e3500000 	cmp	r0, #0
    ab14:	1a000006 	bne	ab34 <RPNResolve+0x2c0>
    ab18:	e1a00006 	mov	r0, r6
    ab1c:	e1a01007 	mov	r1, r7
    ab20:	e3a02000 	mov	r2, #0
    ab24:	e59f3088 	ldr	r3, [pc, #136]	; abb4 <RPNResolve+0x340>
    ab28:	eb000cc0 	bl	de30 <__aeabi_dcmpeq>
    ab2c:	e3500000 	cmp	r0, #0
    ab30:	0affff61 	beq	a8bc <RPNResolve+0x48>
    ab34:	e0896185 	add	r6, r9, r5, lsl #3
    ab38:	e8960003 	ldm	r6, {r0, r1}
    ab3c:	eb00061f 	bl	c3c0 <trigTan>
    ab40:	e35500fe 	cmp	r5, #254	; 0xfe
    ab44:	ca000006 	bgt	ab64 <RPNResolve+0x2f0>
    ab48:	e8860003 	stm	r6, {r0, r1}
    ab4c:	eaffff5a 	b	a8bc <RPNResolve+0x48>
    ab50:	e0896185 	add	r6, r9, r5, lsl #3
    ab54:	e8960003 	ldm	r6, {r0, r1}
    ab58:	eb00059f 	bl	c1dc <trigCos>
    ab5c:	e35500fe 	cmp	r5, #254	; 0xfe
    ab60:	dafffff8 	ble	ab48 <RPNResolve+0x2d4>
    ab64:	e2455001 	sub	r5, r5, #1
    ab68:	eaffff53 	b	a8bc <RPNResolve+0x48>
    ab6c:	e0896185 	add	r6, r9, r5, lsl #3
    ab70:	e8960003 	ldm	r6, {r0, r1}
    ab74:	eb0005da 	bl	c2e4 <trigSin>
    ab78:	e35500fe 	cmp	r5, #254	; 0xfe
    ab7c:	dafffff1 	ble	ab48 <RPNResolve+0x2d4>
    ab80:	eafffff7 	b	ab64 <RPNResolve+0x2f0>
    ab84:	000007f8 	strdeq	r0, [r0], -r8
    ab88:	40458000 	submi	r8, r5, r0
    ab8c:	40468000 	submi	r8, r6, r0
    ab90:	40450000 	submi	r0, r5, r0
    ab94:	40478000 	submi	r8, r7, r0
    ab98:	405cc000 	subsmi	ip, ip, r0
    ab9c:	4058c000 	subsmi	ip, r8, r0
    aba0:	405d0000 	subsmi	r0, sp, r0
    aba4:	40584000 	subsmi	r4, r8, r0
    aba8:	40588000 	subsmi	r8, r8, r0
    abac:	40590000 	subsmi	r0, r9, r0
    abb0:	405b8000 	subsmi	r8, fp, r0
    abb4:	4059c000 	subsmi	ip, r9, r0

0000abb8 <SolveInputHandler>:
    abb8:	e92d40f0 	push	{r4, r5, r6, r7, lr}
    abbc:	e59f5208 	ldr	r5, [pc, #520]	; adcc <SolveInputHandler+0x214>
    abc0:	e5d53000 	ldrb	r3, [r5]
    abc4:	e3530000 	cmp	r3, #0
    abc8:	e24dd014 	sub	sp, sp, #20
    abcc:	1a00001f 	bne	ac50 <SolveInputHandler+0x98>
    abd0:	e59f31f8 	ldr	r3, [pc, #504]	; add0 <SolveInputHandler+0x218>
    abd4:	e0832390 	umull	r2, r3, r0, r3
    abd8:	e1a031a3 	lsr	r3, r3, #3
    abdc:	e0833083 	add	r3, r3, r3, lsl #1
    abe0:	e0403103 	sub	r3, r0, r3, lsl #2
    abe4:	e20330ff 	and	r3, r3, #255	; 0xff
    abe8:	e2432001 	sub	r2, r3, #1
    abec:	e3520007 	cmp	r2, #7
    abf0:	e1a06000 	mov	r6, r0
    abf4:	e1a04001 	mov	r4, r1
    abf8:	9a00001b 	bls	ac6c <SolveInputHandler+0xb4>
    abfc:	e3560021 	cmp	r6, #33	; 0x21
    ac00:	0a00002b 	beq	acb4 <SolveInputHandler+0xfc>
    ac04:	e3560014 	cmp	r6, #20
    ac08:	0a00003d 	beq	ad04 <SolveInputHandler+0x14c>
    ac0c:	e3560020 	cmp	r6, #32
    ac10:	0a000045 	beq	ad2c <SolveInputHandler+0x174>
    ac14:	e3560012 	cmp	r6, #18
    ac18:	0a00004d 	beq	ad54 <SolveInputHandler+0x19c>
    ac1c:	e3560011 	cmp	r6, #17
    ac20:	0a00005f 	beq	ada4 <SolveInputHandler+0x1ec>
    ac24:	e356001d 	cmp	r6, #29
    ac28:	0a000053 	beq	ad7c <SolveInputHandler+0x1c4>
    ac2c:	e59f71a0 	ldr	r7, [pc, #416]	; add4 <SolveInputHandler+0x21c>
    ac30:	e7973106 	ldr	r3, [r7, r6, lsl #2]
    ac34:	e5d30000 	ldrb	r0, [r3]
    ac38:	ebfff7e1 	bl	8bc4 <FBWriteChar>
    ac3c:	e7973106 	ldr	r3, [r7, r6, lsl #2]
    ac40:	e1a00004 	mov	r0, r4
    ac44:	e5d31000 	ldrb	r1, [r3]
    ac48:	eb00041a 	bl	bcb8 <strcharcat>
    ac4c:	e5d53000 	ldrb	r3, [r5]
    ac50:	e3530001 	cmp	r3, #1
    ac54:	0a000001 	beq	ac60 <SolveInputHandler+0xa8>
    ac58:	e3a03000 	mov	r3, #0
    ac5c:	e5c53000 	strb	r3, [r5]
    ac60:	e28dd014 	add	sp, sp, #20
    ac64:	e8bd40f0 	pop	{r4, r5, r6, r7, lr}
    ac68:	e12fff1e 	bx	lr
    ac6c:	e3500014 	cmp	r0, #20
    ac70:	13500025 	cmpne	r0, #37	; 0x25
    ac74:	03a02001 	moveq	r2, #1
    ac78:	13a02000 	movne	r2, #0
    ac7c:	e3500020 	cmp	r0, #32
    ac80:	03822001 	orreq	r2, r2, #1
    ac84:	e3520000 	cmp	r2, #0
    ac88:	1affffdb 	bne	abfc <SolveInputHandler+0x44>
    ac8c:	e2433005 	sub	r3, r3, #5
    ac90:	e3530001 	cmp	r3, #1
    ac94:	93a03001 	movls	r3, #1
    ac98:	83a03000 	movhi	r3, #0
    ac9c:	e350000c 	cmp	r0, #12
    aca0:	93a03000 	movls	r3, #0
    aca4:	e3530000 	cmp	r3, #0
    aca8:	0affffea 	beq	ac58 <SolveInputHandler+0xa0>
    acac:	e3500021 	cmp	r0, #33	; 0x21
    acb0:	1affffd7 	bne	ac14 <SolveInputHandler+0x5c>
    acb4:	e28d6004 	add	r6, sp, #4
    acb8:	e1a00006 	mov	r0, r6
    acbc:	e3a02000 	mov	r2, #0
    acc0:	e1a01004 	mov	r1, r4
    acc4:	ebfffc64 	bl	9e5c <INFtoRPN>
    acc8:	e8960007 	ldm	r6, {r0, r1, r2}
    accc:	ebfffee8 	bl	a874 <RPNResolve>
    acd0:	e1a06000 	mov	r6, r0
    acd4:	e1a07001 	mov	r7, r1
    acd8:	ebfff7ac 	bl	8b90 <FBCharNewline>
    acdc:	e3a0003d 	mov	r0, #61	; 0x3d
    ace0:	ebfff7b7 	bl	8bc4 <FBWriteChar>
    ace4:	e1a00006 	mov	r0, r6
    ace8:	e1a01007 	mov	r1, r7
    acec:	ebfff85c 	bl	8e64 <FBWriteDec>
    acf0:	e3a03000 	mov	r3, #0
    acf4:	e5c43000 	strb	r3, [r4]
    acf8:	ebfff7a4 	bl	8b90 <FBCharNewline>
    acfc:	e5d53000 	ldrb	r3, [r5]
    ad00:	eaffffd2 	b	ac50 <SolveInputHandler+0x98>
    ad04:	e3a01004 	mov	r1, #4
    ad08:	e59f00c8 	ldr	r0, [pc, #200]	; add8 <SolveInputHandler+0x220>
    ad0c:	ebfff7f4 	bl	8ce4 <FBWriteString>
    ad10:	e59f30bc 	ldr	r3, [pc, #188]	; add4 <SolveInputHandler+0x21c>
    ad14:	e5933050 	ldr	r3, [r3, #80]	; 0x50
    ad18:	e1a00004 	mov	r0, r4
    ad1c:	e5d31000 	ldrb	r1, [r3]
    ad20:	eb0003e4 	bl	bcb8 <strcharcat>
    ad24:	e5d53000 	ldrb	r3, [r5]
    ad28:	eaffffc8 	b	ac50 <SolveInputHandler+0x98>
    ad2c:	e3a01004 	mov	r1, #4
    ad30:	e59f00a4 	ldr	r0, [pc, #164]	; addc <SolveInputHandler+0x224>
    ad34:	ebfff7ea 	bl	8ce4 <FBWriteString>
    ad38:	e59f3094 	ldr	r3, [pc, #148]	; add4 <SolveInputHandler+0x21c>
    ad3c:	e5933080 	ldr	r3, [r3, #128]	; 0x80
    ad40:	e1a00004 	mov	r0, r4
    ad44:	e5d31000 	ldrb	r1, [r3]
    ad48:	eb0003da 	bl	bcb8 <strcharcat>
    ad4c:	e5d53000 	ldrb	r3, [r5]
    ad50:	eaffffbe 	b	ac50 <SolveInputHandler+0x98>
    ad54:	e3a01003 	mov	r1, #3
    ad58:	e59f0080 	ldr	r0, [pc, #128]	; ade0 <SolveInputHandler+0x228>
    ad5c:	ebfff7e0 	bl	8ce4 <FBWriteString>
    ad60:	e59f306c 	ldr	r3, [pc, #108]	; add4 <SolveInputHandler+0x21c>
    ad64:	e5933048 	ldr	r3, [r3, #72]	; 0x48
    ad68:	e1a00004 	mov	r0, r4
    ad6c:	e5d31000 	ldrb	r1, [r3]
    ad70:	eb0003d0 	bl	bcb8 <strcharcat>
    ad74:	e5d53000 	ldrb	r3, [r5]
    ad78:	eaffffb4 	b	ac50 <SolveInputHandler+0x98>
    ad7c:	e3a01004 	mov	r1, #4
    ad80:	e59f005c 	ldr	r0, [pc, #92]	; ade4 <SolveInputHandler+0x22c>
    ad84:	ebfff7d6 	bl	8ce4 <FBWriteString>
    ad88:	e59f3044 	ldr	r3, [pc, #68]	; add4 <SolveInputHandler+0x21c>
    ad8c:	e5933074 	ldr	r3, [r3, #116]	; 0x74
    ad90:	e1a00004 	mov	r0, r4
    ad94:	e5d31000 	ldrb	r1, [r3]
    ad98:	eb0003c6 	bl	bcb8 <strcharcat>
    ad9c:	e5d53000 	ldrb	r3, [r5]
    ada0:	eaffffaa 	b	ac50 <SolveInputHandler+0x98>
    ada4:	e3a01004 	mov	r1, #4
    ada8:	e59f0038 	ldr	r0, [pc, #56]	; ade8 <SolveInputHandler+0x230>
    adac:	ebfff7cc 	bl	8ce4 <FBWriteString>
    adb0:	e59f301c 	ldr	r3, [pc, #28]	; add4 <SolveInputHandler+0x21c>
    adb4:	e5933044 	ldr	r3, [r3, #68]	; 0x44
    adb8:	e1a00004 	mov	r0, r4
    adbc:	e5d31000 	ldrb	r1, [r3]
    adc0:	eb0003bc 	bl	bcb8 <strcharcat>
    adc4:	e5d53000 	ldrb	r3, [r5]
    adc8:	eaffffa0 	b	ac50 <SolveInputHandler+0x98>
    adcc:	00f9c550 	rscseq	ip, r9, r0, asr r5
    add0:	aaaaaaab 	bge	feab5884 <shift+0xfdb19334>
    add4:	0000f5dc 	ldrdeq	pc, [r0], -ip
    add8:	0000e05c 	andeq	lr, r0, ip, asr r0
    addc:	0000e064 	andeq	lr, r0, r4, rrx
    ade0:	0000e06c 	andeq	lr, r0, ip, rrx
    ade4:	0000e078 	andeq	lr, r0, r8, ror r0
    ade8:	0000e070 	andeq	lr, r0, r0, ror r0

0000adec <peekqueue>:
    adec:	e1a0c000 	mov	ip, r0
    adf0:	e5913008 	ldr	r3, [r1, #8]
    adf4:	e893000f 	ldm	r3, {r0, r1, r2, r3}
    adf8:	e88c000f 	stm	ip, {r0, r1, r2, r3}
    adfc:	e1a0000c 	mov	r0, ip
    ae00:	e12fff1e 	bx	lr

0000ae04 <enqueue>:
    ae04:	e24dd008 	sub	sp, sp, #8
    ae08:	e92d4010 	push	{r4, lr}
    ae0c:	e1a0e000 	mov	lr, r0
    ae10:	e28d1008 	add	r1, sp, #8
    ae14:	e881000c 	stm	r1, {r2, r3}
    ae18:	e9901010 	ldmib	r0, {r4, ip}
    ae1c:	e891000f 	ldm	r1, {r0, r1, r2, r3}
    ae20:	e08cc204 	add	ip, ip, r4, lsl #4
    ae24:	e2844001 	add	r4, r4, #1
    ae28:	e88c000f 	stm	ip, {r0, r1, r2, r3}
    ae2c:	e58e4004 	str	r4, [lr, #4]
    ae30:	e8bd4010 	pop	{r4, lr}
    ae34:	e28dd008 	add	sp, sp, #8
    ae38:	e12fff1e 	bx	lr

0000ae3c <menuEntry>:
    ae3c:	e92d4010 	push	{r4, lr}
    ae40:	e59f1028 	ldr	r1, [pc, #40]	; ae70 <menuEntry+0x34>
    ae44:	e1a04000 	mov	r4, r0
    ae48:	eb00049b 	bl	c0bc <strcmp>
    ae4c:	e3500000 	cmp	r0, #0
    ae50:	0a000001 	beq	ae5c <menuEntry+0x20>
    ae54:	e8bd4010 	pop	{r4, lr}
    ae58:	e12fff1e 	bx	lr
    ae5c:	e1a00004 	mov	r0, r4
    ae60:	e59f100c 	ldr	r1, [pc, #12]	; ae74 <menuEntry+0x38>
    ae64:	eb000494 	bl	c0bc <strcmp>
    ae68:	e8bd4010 	pop	{r4, lr}
    ae6c:	e12fff1e 	bx	lr
    ae70:	0000e080 	andeq	lr, r0, r0, lsl #1
    ae74:	0000e084 	andeq	lr, r0, r4, lsl #1

0000ae78 <MenuInputHandler>:
    ae78:	e350000f 	cmp	r0, #15
    ae7c:	0a000016 	beq	aedc <MenuInputHandler+0x64>
    ae80:	e350001b 	cmp	r0, #27
    ae84:	0a00000c 	beq	aebc <MenuInputHandler+0x44>
    ae88:	e3500010 	cmp	r0, #16
    ae8c:	0a000019 	beq	aef8 <MenuInputHandler+0x80>
    ae90:	e350001c 	cmp	r0, #28
    ae94:	1a00001c 	bne	af0c <MenuInputHandler+0x94>
    ae98:	e5922000 	ldr	r2, [r2]
    ae9c:	e5911008 	ldr	r1, [r1, #8]
    aea0:	e0820082 	add	r0, r2, r2, lsl #1
    aea4:	e7911100 	ldr	r1, [r1, r0, lsl #2]
    aea8:	e1520001 	cmp	r2, r1
    aeac:	b5932000 	ldrlt	r2, [r3]
    aeb0:	b2822001 	addlt	r2, r2, #1
    aeb4:	b5832000 	strlt	r2, [r3]
    aeb8:	e12fff1e 	bx	lr
    aebc:	e5910004 	ldr	r0, [r1, #4]
    aec0:	e5921000 	ldr	r1, [r2]
    aec4:	e1510000 	cmp	r1, r0
    aec8:	b3a00000 	movlt	r0, #0
    aecc:	b2811001 	addlt	r1, r1, #1
    aed0:	b5821000 	strlt	r1, [r2]
    aed4:	b5830000 	strlt	r0, [r3]
    aed8:	e12fff1e 	bx	lr
    aedc:	e5921000 	ldr	r1, [r2]
    aee0:	e3510000 	cmp	r1, #0
    aee4:	c3a00000 	movgt	r0, #0
    aee8:	c2411001 	subgt	r1, r1, #1
    aeec:	c5821000 	strgt	r1, [r2]
    aef0:	c5830000 	strgt	r0, [r3]
    aef4:	e12fff1e 	bx	lr
    aef8:	e5932000 	ldr	r2, [r3]
    aefc:	e3520000 	cmp	r2, #0
    af00:	c2422001 	subgt	r2, r2, #1
    af04:	c5832000 	strgt	r2, [r3]
    af08:	e12fff1e 	bx	lr
    af0c:	e3500021 	cmp	r0, #33	; 0x21
    af10:	112fff1e 	bxne	lr
    af14:	e5922000 	ldr	r2, [r2]
    af18:	e5911008 	ldr	r1, [r1, #8]
    af1c:	e0822082 	add	r2, r2, r2, lsl #1
    af20:	e0812102 	add	r2, r1, r2, lsl #2
    af24:	e5922004 	ldr	r2, [r2, #4]
    af28:	e5933000 	ldr	r3, [r3]
    af2c:	e7920103 	ldr	r0, [r2, r3, lsl #2]
    af30:	eaffffc1 	b	ae3c <menuEntry>

0000af34 <showEntries>:
    af34:	e92d47f0 	push	{r4, r5, r6, r7, r8, r9, sl, lr}
    af38:	e1a07002 	mov	r7, r2
    af3c:	e59f50bc 	ldr	r5, [pc, #188]	; b000 <showEntries+0xcc>
    af40:	e0c32795 	smull	r2, r3, r5, r7
    af44:	e1a05fc7 	asr	r5, r7, #31
    af48:	e0811081 	add	r1, r1, r1, lsl #1
    af4c:	e06551c3 	rsb	r5, r5, r3, asr #3
    af50:	e5903008 	ldr	r3, [r0, #8]
    af54:	e1a06101 	lsl	r6, r1, #2
    af58:	e0855105 	add	r5, r5, r5, lsl #2
    af5c:	e7939006 	ldr	r9, [r3, r6]
    af60:	e1a05105 	lsl	r5, r5, #2
    af64:	e2853013 	add	r3, r5, #19
    af68:	e1530009 	cmp	r3, r9
    af6c:	b2859014 	addlt	r9, r5, #20
    af70:	e1a08000 	mov	r8, r0
    af74:	ebfff752 	bl	8cc4 <FBCharReset>
    af78:	ebfff704 	bl	8b90 <FBCharNewline>
    af7c:	ebfff703 	bl	8b90 <FBCharNewline>
    af80:	ebfff702 	bl	8b90 <FBCharNewline>
    af84:	ebfff701 	bl	8b90 <FBCharNewline>
    af88:	e1590005 	cmp	r9, r5
    af8c:	e1a04005 	mov	r4, r5
    af90:	ca00000f 	bgt	afd4 <showEntries+0xa0>
    af94:	ea000017 	b	aff8 <showEntries+0xc4>
    af98:	e3a00020 	mov	r0, #32
    af9c:	ebfff708 	bl	8bc4 <FBWriteChar>
    afa0:	e5983008 	ldr	r3, [r8, #8]
    afa4:	e0833006 	add	r3, r3, r6
    afa8:	e5933004 	ldr	r3, [r3, #4]
    afac:	e7935104 	ldr	r5, [r3, r4, lsl #2]
    afb0:	e1a00005 	mov	r0, r5
    afb4:	eb000391 	bl	be00 <strlen>
    afb8:	e2844001 	add	r4, r4, #1
    afbc:	e1a01000 	mov	r1, r0
    afc0:	e1a00005 	mov	r0, r5
    afc4:	ebfff746 	bl	8ce4 <FBWriteString>
    afc8:	ebfff6f0 	bl	8b90 <FBCharNewline>
    afcc:	e1590004 	cmp	r9, r4
    afd0:	0a000008 	beq	aff8 <showEntries+0xc4>
    afd4:	e1570004 	cmp	r7, r4
    afd8:	1affffee 	bne	af98 <showEntries+0x64>
    afdc:	e3a0002a 	mov	r0, #42	; 0x2a
    afe0:	ebfff6f7 	bl	8bc4 <FBWriteChar>
    afe4:	e5983008 	ldr	r3, [r8, #8]
    afe8:	e0833006 	add	r3, r3, r6
    afec:	e5933004 	ldr	r3, [r3, #4]
    aff0:	e7935107 	ldr	r5, [r3, r7, lsl #2]
    aff4:	eaffffed 	b	afb0 <showEntries+0x7c>
    aff8:	e8bd47f0 	pop	{r4, r5, r6, r7, r8, r9, sl, lr}
    affc:	e12fff1e 	bx	lr
    b000:	66666667 	strbtvs	r6, [r6], -r7, ror #12

0000b004 <pixelToGraphX>:
    b004:	e59f3070 	ldr	r3, [pc, #112]	; b07c <pixelToGraphX+0x78>
    b008:	e0c32391 	smull	r2, r3, r1, r3
    b00c:	e92d41f0 	push	{r4, r5, r6, r7, r8, lr}
    b010:	e1a05000 	mov	r5, r0
    b014:	e1a00fc1 	asr	r0, r1, #31
    b018:	e0600343 	rsb	r0, r0, r3, asr #6
    b01c:	e1a04001 	mov	r4, r1
    b020:	eb0009ef 	bl	d7e4 <__aeabi_i2d>
    b024:	e1a06000 	mov	r6, r0
    b028:	e1a00005 	mov	r0, r5
    b02c:	e1a07001 	mov	r7, r1
    b030:	eb0009eb 	bl	d7e4 <__aeabi_i2d>
    b034:	e1a03001 	mov	r3, r1
    b038:	e1a02000 	mov	r2, r0
    b03c:	e1a01007 	mov	r1, r7
    b040:	e1a00006 	mov	r0, r6
    b044:	eb000a1f 	bl	d8c8 <__aeabi_dmul>
    b048:	e1a02000 	mov	r2, r0
    b04c:	e0844fa4 	add	r4, r4, r4, lsr #31
    b050:	e1a000c4 	asr	r0, r4, #1
    b054:	e1a05001 	mov	r5, r1
    b058:	e1a04002 	mov	r4, r2
    b05c:	eb0009e0 	bl	d7e4 <__aeabi_i2d>
    b060:	e1a02000 	mov	r2, r0
    b064:	e1a03001 	mov	r3, r1
    b068:	e1a00004 	mov	r0, r4
    b06c:	e1a01005 	mov	r1, r5
    b070:	eb00090d 	bl	d4ac <__aeabi_dsub>
    b074:	e8bd41f0 	pop	{r4, r5, r6, r7, r8, lr}
    b078:	e12fff1e 	bx	lr
    b07c:	335c49d5 	cmpcc	ip, #3489792	; 0x354000

0000b080 <pixelToGraphY>:
    b080:	e59f3074 	ldr	r3, [pc, #116]	; b0fc <pixelToGraphY+0x7c>
    b084:	e0c32391 	smull	r2, r3, r1, r3
    b088:	e92d41f0 	push	{r4, r5, r6, r7, r8, lr}
    b08c:	e0833001 	add	r3, r3, r1
    b090:	e1a05000 	mov	r5, r0
    b094:	e1a00fc1 	asr	r0, r1, #31
    b098:	e06003c3 	rsb	r0, r0, r3, asr #7
    b09c:	e1a04001 	mov	r4, r1
    b0a0:	eb0009cf 	bl	d7e4 <__aeabi_i2d>
    b0a4:	e1a06000 	mov	r6, r0
    b0a8:	e1a00005 	mov	r0, r5
    b0ac:	e1a07001 	mov	r7, r1
    b0b0:	eb0009cb 	bl	d7e4 <__aeabi_i2d>
    b0b4:	e1a03001 	mov	r3, r1
    b0b8:	e1a02000 	mov	r2, r0
    b0bc:	e1a01007 	mov	r1, r7
    b0c0:	e1a00006 	mov	r0, r6
    b0c4:	eb0009ff 	bl	d8c8 <__aeabi_dmul>
    b0c8:	e1a02000 	mov	r2, r0
    b0cc:	e0844fa4 	add	r4, r4, r4, lsr #31
    b0d0:	e1a000c4 	asr	r0, r4, #1
    b0d4:	e1a05001 	mov	r5, r1
    b0d8:	e1a04002 	mov	r4, r2
    b0dc:	eb0009c0 	bl	d7e4 <__aeabi_i2d>
    b0e0:	e1a02000 	mov	r2, r0
    b0e4:	e1a03001 	mov	r3, r1
    b0e8:	e1a00004 	mov	r0, r4
    b0ec:	e1a01005 	mov	r1, r5
    b0f0:	eb0008ed 	bl	d4ac <__aeabi_dsub>
    b0f4:	e8bd41f0 	pop	{r4, r5, r6, r7, r8, lr}
    b0f8:	e12fff1e 	bx	lr
    b0fc:	891ac73b 	ldmdbhi	sl, {r0, r1, r3, r4, r5, r8, r9, sl, lr, pc}

0000b100 <graphToPixelX>:
    b100:	e92d41f0 	push	{r4, r5, r6, r7, r8, lr}
    b104:	e1a06000 	mov	r6, r0
    b108:	e1a07001 	mov	r7, r1
    b10c:	e0823fa2 	add	r3, r2, r2, lsr #31
    b110:	e1a000c3 	asr	r0, r3, #1
    b114:	e1a04002 	mov	r4, r2
    b118:	eb0009b1 	bl	d7e4 <__aeabi_i2d>
    b11c:	e1a02006 	mov	r2, r6
    b120:	e1a03007 	mov	r3, r7
    b124:	eb0008e1 	bl	d4b0 <__adddf3>
    b128:	e1a02000 	mov	r2, r0
    b12c:	e1a03001 	mov	r3, r1
    b130:	e59f0030 	ldr	r0, [pc, #48]	; b168 <graphToPixelX+0x68>
    b134:	e1a01004 	mov	r1, r4
    b138:	e1a05003 	mov	r5, r3
    b13c:	e1a04002 	mov	r4, r2
    b140:	eb000884 	bl	d358 <__divsi3>
    b144:	eb0009a6 	bl	d7e4 <__aeabi_i2d>
    b148:	e1a02000 	mov	r2, r0
    b14c:	e1a03001 	mov	r3, r1
    b150:	e1a00004 	mov	r0, r4
    b154:	e1a01005 	mov	r1, r5
    b158:	eb0009da 	bl	d8c8 <__aeabi_dmul>
    b15c:	eb000b51 	bl	dea8 <__aeabi_d2iz>
    b160:	e8bd41f0 	pop	{r4, r5, r6, r7, r8, lr}
    b164:	e12fff1e 	bx	lr
    b168:	0000013f 	andeq	r0, r0, pc, lsr r1

0000b16c <graphToPixelY>:
    b16c:	e92d41f0 	push	{r4, r5, r6, r7, r8, lr}
    b170:	e1a06000 	mov	r6, r0
    b174:	e1a07001 	mov	r7, r1
    b178:	e0823fa2 	add	r3, r2, r2, lsr #31
    b17c:	e1a000c3 	asr	r0, r3, #1
    b180:	e1a04002 	mov	r4, r2
    b184:	eb000996 	bl	d7e4 <__aeabi_i2d>
    b188:	e1a02006 	mov	r2, r6
    b18c:	e1a03007 	mov	r3, r7
    b190:	eb0008c6 	bl	d4b0 <__adddf3>
    b194:	e1a02000 	mov	r2, r0
    b198:	e1a03001 	mov	r3, r1
    b19c:	e3a000ef 	mov	r0, #239	; 0xef
    b1a0:	e1a01004 	mov	r1, r4
    b1a4:	e1a05003 	mov	r5, r3
    b1a8:	e1a04002 	mov	r4, r2
    b1ac:	eb000869 	bl	d358 <__divsi3>
    b1b0:	eb00098b 	bl	d7e4 <__aeabi_i2d>
    b1b4:	e1a02000 	mov	r2, r0
    b1b8:	e1a03001 	mov	r3, r1
    b1bc:	e1a00004 	mov	r0, r4
    b1c0:	e1a01005 	mov	r1, r5
    b1c4:	eb0009bf 	bl	d8c8 <__aeabi_dmul>
    b1c8:	eb000b36 	bl	dea8 <__aeabi_d2iz>
    b1cc:	e8bd41f0 	pop	{r4, r5, r6, r7, r8, lr}
    b1d0:	e12fff1e 	bx	lr

0000b1d4 <funcEval>:
    b1d4:	e92d4ff0 	push	{r4, r5, r6, r7, r8, r9, sl, fp, lr}
    b1d8:	e24dd024 	sub	sp, sp, #36	; 0x24
    b1dc:	e28db004 	add	fp, sp, #4
    b1e0:	e88b0007 	stm	fp, {r0, r1, r2}
    b1e4:	e59f0334 	ldr	r0, [pc, #820]	; b520 <funcEval+0x34c>
    b1e8:	ebfff8eb 	bl	959c <malloc>
    b1ec:	e59d3008 	ldr	r3, [sp, #8]
    b1f0:	e3530000 	cmp	r3, #0
    b1f4:	e1a0a000 	mov	sl, r0
    b1f8:	da00007a 	ble	b3e8 <funcEval+0x214>
    b1fc:	e3a05000 	mov	r5, #0
    b200:	e3a08000 	mov	r8, #0
    b204:	e1a04005 	mov	r4, r5
    b208:	e59f9314 	ldr	r9, [pc, #788]	; b524 <funcEval+0x350>
    b20c:	ea000008 	b	b234 <funcEval+0x60>
    b210:	e2853001 	add	r3, r5, #1
    b214:	e35300fe 	cmp	r3, #254	; 0xfe
    b218:	d1a05003 	movle	r5, r3
    b21c:	d08a2183 	addle	r2, sl, r3, lsl #3
    b220:	d88200c0 	stmle	r2, {r6, r7}
    b224:	e59d3008 	ldr	r3, [sp, #8]
    b228:	e2844001 	add	r4, r4, #1
    b22c:	e1530004 	cmp	r3, r4
    b230:	da000017 	ble	b294 <funcEval+0xc0>
    b234:	e1a0100b 	mov	r1, fp
    b238:	e28d0010 	add	r0, sp, #16
    b23c:	ebfffd77 	bl	a820 <dequeue>
    b240:	e59d3010 	ldr	r3, [sp, #16]
    b244:	e3530000 	cmp	r3, #0
    b248:	e28d7018 	add	r7, sp, #24
    b24c:	e89700c0 	ldm	r7, {r6, r7}
    b250:	0affffee 	beq	b210 <funcEval+0x3c>
    b254:	e3530001 	cmp	r3, #1
    b258:	0a000017 	beq	b2bc <funcEval+0xe8>
    b25c:	e3530002 	cmp	r3, #2
    b260:	1affffef 	bne	b224 <funcEval+0x50>
    b264:	e2853001 	add	r3, r5, #1
    b268:	e35300fe 	cmp	r3, #254	; 0xfe
    b26c:	caffffec 	bgt	b224 <funcEval+0x50>
    b270:	e28d2048 	add	r2, sp, #72	; 0x48
    b274:	e8920006 	ldm	r2, {r1, r2}
    b278:	e1a05003 	mov	r5, r3
    b27c:	e08a3183 	add	r3, sl, r3, lsl #3
    b280:	e8830006 	stm	r3, {r1, r2}
    b284:	e59d3008 	ldr	r3, [sp, #8]
    b288:	e2844001 	add	r4, r4, #1
    b28c:	e1530004 	cmp	r3, r4
    b290:	caffffe7 	bgt	b234 <funcEval+0x60>
    b294:	e08a5185 	add	r5, sl, r5, lsl #3
    b298:	e8950030 	ldm	r5, {r4, r5}
    b29c:	e1a0000a 	mov	r0, sl
    b2a0:	e59f1278 	ldr	r1, [pc, #632]	; b520 <funcEval+0x34c>
    b2a4:	ebfff902 	bl	96b4 <free>
    b2a8:	e1a00004 	mov	r0, r4
    b2ac:	e1a01005 	mov	r1, r5
    b2b0:	e28dd024 	add	sp, sp, #36	; 0x24
    b2b4:	e8bd4ff0 	pop	{r4, r5, r6, r7, r8, r9, sl, fp, lr}
    b2b8:	e12fff1e 	bx	lr
    b2bc:	e1a02008 	mov	r2, r8
    b2c0:	e1a03009 	mov	r3, r9
    b2c4:	e1a00006 	mov	r0, r6
    b2c8:	e1a01007 	mov	r1, r7
    b2cc:	eb000ad7 	bl	de30 <__aeabi_dcmpeq>
    b2d0:	e3500000 	cmp	r0, #0
    b2d4:	0a00000c 	beq	b30c <funcEval+0x138>
    b2d8:	e1a03185 	lsl	r3, r5, #3
    b2dc:	e2436008 	sub	r6, r3, #8
    b2e0:	e08a1003 	add	r1, sl, r3
    b2e4:	e08a6006 	add	r6, sl, r6
    b2e8:	e896000c 	ldm	r6, {r2, r3}
    b2ec:	e8910003 	ldm	r1, {r0, r1}
    b2f0:	eb00086e 	bl	d4b0 <__adddf3>
    b2f4:	e2453001 	sub	r3, r5, #1
    b2f8:	e35300fe 	cmp	r3, #254	; 0xfe
    b2fc:	ca000013 	bgt	b350 <funcEval+0x17c>
    b300:	e1a05003 	mov	r5, r3
    b304:	e8860003 	stm	r6, {r0, r1}
    b308:	eaffffc5 	b	b224 <funcEval+0x50>
    b30c:	e3a02000 	mov	r2, #0
    b310:	e1a00006 	mov	r0, r6
    b314:	e1a01007 	mov	r1, r7
    b318:	e59f3208 	ldr	r3, [pc, #520]	; b528 <funcEval+0x354>
    b31c:	eb000ac3 	bl	de30 <__aeabi_dcmpeq>
    b320:	e3500000 	cmp	r0, #0
    b324:	0a00000b 	beq	b358 <funcEval+0x184>
    b328:	e1a03185 	lsl	r3, r5, #3
    b32c:	e2436008 	sub	r6, r3, #8
    b330:	e08a6006 	add	r6, sl, r6
    b334:	e08a3003 	add	r3, sl, r3
    b338:	e893000c 	ldm	r3, {r2, r3}
    b33c:	e8960003 	ldm	r6, {r0, r1}
    b340:	eb000859 	bl	d4ac <__aeabi_dsub>
    b344:	e2453001 	sub	r3, r5, #1
    b348:	e35300fe 	cmp	r3, #254	; 0xfe
    b34c:	daffffeb 	ble	b300 <funcEval+0x12c>
    b350:	e2455002 	sub	r5, r5, #2
    b354:	eaffffb2 	b	b224 <funcEval+0x50>
    b358:	e3a02000 	mov	r2, #0
    b35c:	e1a00006 	mov	r0, r6
    b360:	e1a01007 	mov	r1, r7
    b364:	e59f31c0 	ldr	r3, [pc, #448]	; b52c <funcEval+0x358>
    b368:	eb000ab0 	bl	de30 <__aeabi_dcmpeq>
    b36c:	e3500000 	cmp	r0, #0
    b370:	1a000011 	bne	b3bc <funcEval+0x1e8>
    b374:	e3a02000 	mov	r2, #0
    b378:	e1a00006 	mov	r0, r6
    b37c:	e1a01007 	mov	r1, r7
    b380:	e59f31a8 	ldr	r3, [pc, #424]	; b530 <funcEval+0x35c>
    b384:	eb000aa9 	bl	de30 <__aeabi_dcmpeq>
    b388:	e3500000 	cmp	r0, #0
    b38c:	0a000017 	beq	b3f0 <funcEval+0x21c>
    b390:	e1a03185 	lsl	r3, r5, #3
    b394:	e2436008 	sub	r6, r3, #8
    b398:	e08a6006 	add	r6, sl, r6
    b39c:	e08a3003 	add	r3, sl, r3
    b3a0:	e893000c 	ldm	r3, {r2, r3}
    b3a4:	e8960003 	ldm	r6, {r0, r1}
    b3a8:	eb0009ea 	bl	db58 <__aeabi_ddiv>
    b3ac:	e2453001 	sub	r3, r5, #1
    b3b0:	e35300fe 	cmp	r3, #254	; 0xfe
    b3b4:	daffffd1 	ble	b300 <funcEval+0x12c>
    b3b8:	eaffffe4 	b	b350 <funcEval+0x17c>
    b3bc:	e1a03185 	lsl	r3, r5, #3
    b3c0:	e2436008 	sub	r6, r3, #8
    b3c4:	e08a1003 	add	r1, sl, r3
    b3c8:	e08a6006 	add	r6, sl, r6
    b3cc:	e896000c 	ldm	r6, {r2, r3}
    b3d0:	e8910003 	ldm	r1, {r0, r1}
    b3d4:	eb00093b 	bl	d8c8 <__aeabi_dmul>
    b3d8:	e2453001 	sub	r3, r5, #1
    b3dc:	e35300fe 	cmp	r3, #254	; 0xfe
    b3e0:	daffffc6 	ble	b300 <funcEval+0x12c>
    b3e4:	eaffffd9 	b	b350 <funcEval+0x17c>
    b3e8:	e1a05000 	mov	r5, r0
    b3ec:	eaffffa9 	b	b298 <funcEval+0xc4>
    b3f0:	e3a02000 	mov	r2, #0
    b3f4:	e1a00006 	mov	r0, r6
    b3f8:	e1a01007 	mov	r1, r7
    b3fc:	e59f3130 	ldr	r3, [pc, #304]	; b534 <funcEval+0x360>
    b400:	eb000a8a 	bl	de30 <__aeabi_dcmpeq>
    b404:	e3500000 	cmp	r0, #0
    b408:	1a00003e 	bne	b508 <funcEval+0x334>
    b40c:	e3a02000 	mov	r2, #0
    b410:	e1a00006 	mov	r0, r6
    b414:	e1a01007 	mov	r1, r7
    b418:	e59f3118 	ldr	r3, [pc, #280]	; b538 <funcEval+0x364>
    b41c:	eb000a83 	bl	de30 <__aeabi_dcmpeq>
    b420:	e3500000 	cmp	r0, #0
    b424:	1a000030 	bne	b4ec <funcEval+0x318>
    b428:	e3a02000 	mov	r2, #0
    b42c:	e1a00006 	mov	r0, r6
    b430:	e1a01007 	mov	r1, r7
    b434:	e59f3100 	ldr	r3, [pc, #256]	; b53c <funcEval+0x368>
    b438:	eb000a7c 	bl	de30 <__aeabi_dcmpeq>
    b43c:	e3500000 	cmp	r0, #0
    b440:	1a000022 	bne	b4d0 <funcEval+0x2fc>
    b444:	e3a02000 	mov	r2, #0
    b448:	e1a00006 	mov	r0, r6
    b44c:	e1a01007 	mov	r1, r7
    b450:	e59f30e8 	ldr	r3, [pc, #232]	; b540 <funcEval+0x36c>
    b454:	eb000a75 	bl	de30 <__aeabi_dcmpeq>
    b458:	e3500000 	cmp	r0, #0
    b45c:	1a00001b 	bne	b4d0 <funcEval+0x2fc>
    b460:	e3a02000 	mov	r2, #0
    b464:	e1a00006 	mov	r0, r6
    b468:	e1a01007 	mov	r1, r7
    b46c:	e59f30d0 	ldr	r3, [pc, #208]	; b544 <funcEval+0x370>
    b470:	eb000a6e 	bl	de30 <__aeabi_dcmpeq>
    b474:	e3500000 	cmp	r0, #0
    b478:	1a000014 	bne	b4d0 <funcEval+0x2fc>
    b47c:	e3a02000 	mov	r2, #0
    b480:	e1a00006 	mov	r0, r6
    b484:	e1a01007 	mov	r1, r7
    b488:	e59f30b8 	ldr	r3, [pc, #184]	; b548 <funcEval+0x374>
    b48c:	eb000a67 	bl	de30 <__aeabi_dcmpeq>
    b490:	e3500000 	cmp	r0, #0
    b494:	1a00000d 	bne	b4d0 <funcEval+0x2fc>
    b498:	e3a02000 	mov	r2, #0
    b49c:	e1a00006 	mov	r0, r6
    b4a0:	e1a01007 	mov	r1, r7
    b4a4:	e59f30a0 	ldr	r3, [pc, #160]	; b54c <funcEval+0x378>
    b4a8:	eb000a60 	bl	de30 <__aeabi_dcmpeq>
    b4ac:	e3500000 	cmp	r0, #0
    b4b0:	1a000006 	bne	b4d0 <funcEval+0x2fc>
    b4b4:	e1a00006 	mov	r0, r6
    b4b8:	e1a01007 	mov	r1, r7
    b4bc:	e3a02000 	mov	r2, #0
    b4c0:	e59f3088 	ldr	r3, [pc, #136]	; b550 <funcEval+0x37c>
    b4c4:	eb000a59 	bl	de30 <__aeabi_dcmpeq>
    b4c8:	e3500000 	cmp	r0, #0
    b4cc:	0affff54 	beq	b224 <funcEval+0x50>
    b4d0:	e08a6185 	add	r6, sl, r5, lsl #3
    b4d4:	e8960003 	ldm	r6, {r0, r1}
    b4d8:	eb0003b8 	bl	c3c0 <trigTan>
    b4dc:	e35500fe 	cmp	r5, #254	; 0xfe
    b4e0:	ca000006 	bgt	b500 <funcEval+0x32c>
    b4e4:	e8860003 	stm	r6, {r0, r1}
    b4e8:	eaffff4d 	b	b224 <funcEval+0x50>
    b4ec:	e08a6185 	add	r6, sl, r5, lsl #3
    b4f0:	e8960003 	ldm	r6, {r0, r1}
    b4f4:	eb000338 	bl	c1dc <trigCos>
    b4f8:	e35500fe 	cmp	r5, #254	; 0xfe
    b4fc:	dafffff8 	ble	b4e4 <funcEval+0x310>
    b500:	e2455001 	sub	r5, r5, #1
    b504:	eaffff46 	b	b224 <funcEval+0x50>
    b508:	e08a6185 	add	r6, sl, r5, lsl #3
    b50c:	e8960003 	ldm	r6, {r0, r1}
    b510:	eb000373 	bl	c2e4 <trigSin>
    b514:	e35500fe 	cmp	r5, #254	; 0xfe
    b518:	dafffff1 	ble	b4e4 <funcEval+0x310>
    b51c:	eafffff7 	b	b500 <funcEval+0x32c>
    b520:	000007f8 	strdeq	r0, [r0], -r8
    b524:	40458000 	submi	r8, r5, r0
    b528:	40468000 	submi	r8, r6, r0
    b52c:	40450000 	submi	r0, r5, r0
    b530:	40478000 	submi	r8, r7, r0
    b534:	405cc000 	subsmi	ip, ip, r0
    b538:	4058c000 	subsmi	ip, r8, r0
    b53c:	405d0000 	subsmi	r0, sp, r0
    b540:	40584000 	subsmi	r4, r8, r0
    b544:	40588000 	subsmi	r8, r8, r0
    b548:	40590000 	subsmi	r0, r9, r0
    b54c:	405b8000 	subsmi	r8, fp, r0
    b550:	4059c000 	subsmi	ip, r9, r0

0000b554 <graph>:
    b554:	e92d4ff0 	push	{r4, r5, r6, r7, r8, r9, sl, fp, lr}
    b558:	e3a04000 	mov	r4, #0
    b55c:	e24dd02c 	sub	sp, sp, #44	; 0x2c
    b560:	e1a06003 	mov	r6, r3
    b564:	e28d301c 	add	r3, sp, #28
    b568:	e8830007 	stm	r3, {r0, r1, r2}
    b56c:	e59da050 	ldr	sl, [sp, #80]	; 0x50
    b570:	e1a01804 	lsl	r1, r4, #16
    b574:	e3a020ff 	mov	r2, #255	; 0xff
    b578:	e3a000a0 	mov	r0, #160	; 0xa0
    b57c:	e1a01821 	lsr	r1, r1, #16
    b580:	e2844001 	add	r4, r4, #1
    b584:	ebfff56e 	bl	8b44 <FBWrite>
    b588:	e35400f0 	cmp	r4, #240	; 0xf0
    b58c:	1afffff7 	bne	b570 <graph+0x1c>
    b590:	e3a04000 	mov	r4, #0
    b594:	e1a00804 	lsl	r0, r4, #16
    b598:	e3a020ff 	mov	r2, #255	; 0xff
    b59c:	e3a01078 	mov	r1, #120	; 0x78
    b5a0:	e1a00820 	lsr	r0, r0, #16
    b5a4:	e2844001 	add	r4, r4, #1
    b5a8:	ebfff565 	bl	8b44 <FBWrite>
    b5ac:	e3540d05 	cmp	r4, #320	; 0x140
    b5b0:	1afffff7 	bne	b594 <graph+0x40>
    b5b4:	e59f315c 	ldr	r3, [pc, #348]	; b718 <graph+0x1c4>
    b5b8:	e0c32396 	smull	r2, r3, r6, r3
    b5bc:	e1a00fc6 	asr	r0, r6, #31
    b5c0:	e0600343 	rsb	r0, r0, r3, asr #6
    b5c4:	eb000886 	bl	d7e4 <__aeabi_i2d>
    b5c8:	e1a02000 	mov	r2, r0
    b5cc:	e1a03001 	mov	r3, r1
    b5d0:	e0866fa6 	add	r6, r6, r6, lsr #31
    b5d4:	e1a000c6 	asr	r0, r6, #1
    b5d8:	e58d2008 	str	r2, [sp, #8]
    b5dc:	e58d300c 	str	r3, [sp, #12]
    b5e0:	eb00087f 	bl	d7e4 <__aeabi_i2d>
    b5e4:	e08abfaa 	add	fp, sl, sl, lsr #31
    b5e8:	e3a04000 	mov	r4, #0
    b5ec:	e58d0010 	str	r0, [sp, #16]
    b5f0:	e58d1014 	str	r1, [sp, #20]
    b5f4:	e1a0b0cb 	asr	fp, fp, #1
    b5f8:	ea000009 	b	b624 <graph+0xd0>
    b5fc:	e1a09804 	lsl	r9, r4, #16
    b600:	e1a09829 	lsr	r9, r9, #16
    b604:	e1a01805 	lsl	r1, r5, #16
    b608:	e1a00009 	mov	r0, r9
    b60c:	e3a020ff 	mov	r2, #255	; 0xff
    b610:	e1a01821 	lsr	r1, r1, #16
    b614:	ebfff54a 	bl	8b44 <FBWrite>
    b618:	e2844001 	add	r4, r4, #1
    b61c:	e3540d05 	cmp	r4, #320	; 0x140
    b620:	0a000039 	beq	b70c <graph+0x1b8>
    b624:	e1a00004 	mov	r0, r4
    b628:	eb00086d 	bl	d7e4 <__aeabi_i2d>
    b62c:	e28d3008 	add	r3, sp, #8
    b630:	e893000c 	ldm	r3, {r2, r3}
    b634:	eb0008a3 	bl	d8c8 <__aeabi_dmul>
    b638:	e28d3010 	add	r3, sp, #16
    b63c:	e893000c 	ldm	r3, {r2, r3}
    b640:	eb000799 	bl	d4ac <__aeabi_dsub>
    b644:	e1a06000 	mov	r6, r0
    b648:	e1a07001 	mov	r7, r1
    b64c:	e28d301c 	add	r3, sp, #28
    b650:	e8930007 	ldm	r3, {r0, r1, r2}
    b654:	e88d00c0 	stm	sp, {r6, r7}
    b658:	ebfffedd 	bl	b1d4 <funcEval>
    b65c:	e1a08000 	mov	r8, r0
    b660:	e1a09001 	mov	r9, r1
    b664:	e3a000ef 	mov	r0, #239	; 0xef
    b668:	e1a0100a 	mov	r1, sl
    b66c:	eb000739 	bl	d358 <__divsi3>
    b670:	eb00085b 	bl	d7e4 <__aeabi_i2d>
    b674:	e1a06000 	mov	r6, r0
    b678:	e1a0000b 	mov	r0, fp
    b67c:	e1a07001 	mov	r7, r1
    b680:	eb000857 	bl	d7e4 <__aeabi_i2d>
    b684:	e1a02008 	mov	r2, r8
    b688:	e1a03009 	mov	r3, r9
    b68c:	eb000787 	bl	d4b0 <__adddf3>
    b690:	e1a02000 	mov	r2, r0
    b694:	e1a03001 	mov	r3, r1
    b698:	e1a00006 	mov	r0, r6
    b69c:	e1a01007 	mov	r1, r7
    b6a0:	eb000888 	bl	d8c8 <__aeabi_dmul>
    b6a4:	eb0009ff 	bl	dea8 <__aeabi_d2iz>
    b6a8:	e35000ef 	cmp	r0, #239	; 0xef
    b6ac:	e1a06005 	mov	r6, r5
    b6b0:	e1a05000 	mov	r5, r0
    b6b4:	8affffd7 	bhi	b618 <graph+0xc4>
    b6b8:	e3540000 	cmp	r4, #0
    b6bc:	01a09004 	moveq	r9, r4
    b6c0:	0affffcf 	beq	b604 <graph+0xb0>
    b6c4:	e0407006 	sub	r7, r0, r6
    b6c8:	e3570001 	cmp	r7, #1
    b6cc:	daffffca 	ble	b5fc <graph+0xa8>
    b6d0:	e3a08001 	mov	r8, #1
    b6d4:	e1a06806 	lsl	r6, r6, #16
    b6d8:	e1a09804 	lsl	r9, r4, #16
    b6dc:	e1a06826 	lsr	r6, r6, #16
    b6e0:	e1a09829 	lsr	r9, r9, #16
    b6e4:	e0861008 	add	r1, r6, r8
    b6e8:	e1a01801 	lsl	r1, r1, #16
    b6ec:	e3a020ff 	mov	r2, #255	; 0xff
    b6f0:	e1a00009 	mov	r0, r9
    b6f4:	e1a01821 	lsr	r1, r1, #16
    b6f8:	e2888001 	add	r8, r8, #1
    b6fc:	ebfff510 	bl	8b44 <FBWrite>
    b700:	e1570008 	cmp	r7, r8
    b704:	1afffff6 	bne	b6e4 <graph+0x190>
    b708:	eaffffbd 	b	b604 <graph+0xb0>
    b70c:	e28dd02c 	add	sp, sp, #44	; 0x2c
    b710:	e8bd4ff0 	pop	{r4, r5, r6, r7, r8, r9, sl, fp, lr}
    b714:	e12fff1e 	bx	lr
    b718:	335c49d5 	cmpcc	ip, #3489792	; 0x354000

0000b71c <shell>:
    b71c:	e3a03014 	mov	r3, #20
    b720:	e92d4ff0 	push	{r4, r5, r6, r7, r8, r9, sl, fp, lr}
    b724:	e3a04000 	mov	r4, #0
    b728:	e59f232c 	ldr	r2, [pc, #812]	; ba5c <shell+0x340>
    b72c:	e59f932c 	ldr	r9, [pc, #812]	; ba60 <shell+0x344>
    b730:	e5823000 	str	r3, [r2]
    b734:	e59f2328 	ldr	r2, [pc, #808]	; ba64 <shell+0x348>
    b738:	e24dd05c 	sub	sp, sp, #92	; 0x5c
    b73c:	e3a00050 	mov	r0, #80	; 0x50
    b740:	e5823000 	str	r3, [r2]
    b744:	e5cd4010 	strb	r4, [sp, #16]
    b748:	e58d4014 	str	r4, [sp, #20]
    b74c:	e58d4018 	str	r4, [sp, #24]
    b750:	e58d4008 	str	r4, [sp, #8]
    b754:	e58d400c 	str	r4, [sp, #12]
    b758:	e5c94000 	strb	r4, [r9]
    b75c:	ebfff78e 	bl	959c <malloc>
    b760:	e1a03004 	mov	r3, r4
    b764:	e1a0a000 	mov	sl, r0
    b768:	e1a01004 	mov	r1, r4
    b76c:	e5c04000 	strb	r4, [r0]
    b770:	e0832083 	add	r2, r3, r3, lsl #1
    b774:	e28d0058 	add	r0, sp, #88	; 0x58
    b778:	e2833001 	add	r3, r3, #1
    b77c:	e0802102 	add	r2, r0, r2, lsl #2
    b780:	e3530005 	cmp	r3, #5
    b784:	e502103c 	str	r1, [r2, #-60]	; 0xffffffc4
    b788:	e5021038 	str	r1, [r2, #-56]	; 0xffffffc8
    b78c:	e5021034 	str	r1, [r2, #-52]	; 0xffffffcc
    b790:	1afffff6 	bne	b770 <shell+0x54>
    b794:	e3a0c000 	mov	ip, #0
    b798:	e3a00000 	mov	r0, #0
    b79c:	e3a01000 	mov	r1, #0
    b7a0:	e59f22c0 	ldr	r2, [pc, #704]	; ba68 <shell+0x34c>
    b7a4:	e2423a01 	sub	r3, r2, #4096	; 0x1000
    b7a8:	e5830008 	str	r0, [r3, #8]
    b7ac:	e583100c 	str	r1, [r3, #12]
    b7b0:	e583c000 	str	ip, [r3]
    b7b4:	e2833010 	add	r3, r3, #16
    b7b8:	e1530002 	cmp	r3, r2
    b7bc:	1afffff9 	bne	b7a8 <shell+0x8c>
    b7c0:	e3a0c000 	mov	ip, #0
    b7c4:	e3a00000 	mov	r0, #0
    b7c8:	e3a01000 	mov	r1, #0
    b7cc:	e59f3294 	ldr	r3, [pc, #660]	; ba68 <shell+0x34c>
    b7d0:	e2832a01 	add	r2, r3, #4096	; 0x1000
    b7d4:	e5830008 	str	r0, [r3, #8]
    b7d8:	e583100c 	str	r1, [r3, #12]
    b7dc:	e583c000 	str	ip, [r3]
    b7e0:	e2833010 	add	r3, r3, #16
    b7e4:	e1520003 	cmp	r2, r3
    b7e8:	1afffff9 	bne	b7d4 <shell+0xb8>
    b7ec:	e3a08000 	mov	r8, #0
    b7f0:	e1a00008 	mov	r0, r8
    b7f4:	e59f3270 	ldr	r3, [pc, #624]	; ba6c <shell+0x350>
    b7f8:	e2831004 	add	r1, r3, #4
    b7fc:	e2882041 	add	r2, r8, #65	; 0x41
    b800:	e7810188 	str	r0, [r1, r8, lsl #3]
    b804:	e7c32188 	strb	r2, [r3, r8, lsl #3]
    b808:	e2888001 	add	r8, r8, #1
    b80c:	e358001a 	cmp	r8, #26
    b810:	1afffff9 	bne	b7fc <shell+0xe0>
    b814:	e3a0b000 	mov	fp, #0
    b818:	e3a07007 	mov	r7, #7
    b81c:	e1a0500b 	mov	r5, fp
    b820:	e59f6248 	ldr	r6, [pc, #584]	; ba70 <shell+0x354>
    b824:	ea00001d 	b	b8a0 <shell+0x184>
    b828:	e7963100 	ldr	r3, [r6, r0, lsl #2]
    b82c:	e5d33000 	ldrb	r3, [r3]
    b830:	e3530051 	cmp	r3, #81	; 0x51
    b834:	0a00005b 	beq	b9a8 <shell+0x28c>
    b838:	e3550000 	cmp	r5, #0
    b83c:	1a00002a 	bne	b8ec <shell+0x1d0>
    b840:	e1a0100a 	mov	r1, sl
    b844:	ebfffcdb 	bl	abb8 <SolveInputHandler>
    b848:	e7963104 	ldr	r3, [r6, r4, lsl #2]
    b84c:	e5d33000 	ldrb	r3, [r3]
    b850:	e3530053 	cmp	r3, #83	; 0x53
    b854:	13530056 	cmpne	r3, #86	; 0x56
    b858:	03a02001 	moveq	r2, #1
    b85c:	13a02000 	movne	r2, #0
    b860:	e353004d 	cmp	r3, #77	; 0x4d
    b864:	03822001 	orreq	r2, r2, #1
    b868:	e3520000 	cmp	r2, #0
    b86c:	0a000004 	beq	b884 <shell+0x168>
    b870:	e5d92000 	ldrb	r2, [r9]
    b874:	e3520000 	cmp	r2, #0
    b878:	01a07003 	moveq	r7, r3
    b87c:	03a05001 	moveq	r5, #1
    b880:	0a000004 	beq	b898 <shell+0x17c>
    b884:	e3530047 	cmp	r3, #71	; 0x47
    b888:	0a000053 	beq	b9dc <shell+0x2c0>
    b88c:	e3530059 	cmp	r3, #89	; 0x59
    b890:	13a05000 	movne	r5, #0
    b894:	0a000055 	beq	b9f0 <shell+0x2d4>
    b898:	ebfff4af 	bl	8b5c <FBRender>
    b89c:	e1a0b004 	mov	fp, r4
    b8a0:	ebfff36a 	bl	8650 <getInput>
    b8a4:	e3500000 	cmp	r0, #0
    b8a8:	115b0000 	cmpne	fp, r0
    b8ac:	e1a04000 	mov	r4, r0
    b8b0:	1affffdc 	bne	b828 <shell+0x10c>
    b8b4:	e3550000 	cmp	r5, #0
    b8b8:	0affffe2 	beq	b848 <shell+0x12c>
    b8bc:	e3550001 	cmp	r5, #1
    b8c0:	0a000015 	beq	b91c <shell+0x200>
    b8c4:	e3550002 	cmp	r5, #2
    b8c8:	0a000022 	beq	b958 <shell+0x23c>
    b8cc:	e3550004 	cmp	r5, #4
    b8d0:	1a00000b 	bne	b904 <shell+0x1e8>
    b8d4:	e3540021 	cmp	r4, #33	; 0x21
    b8d8:	13a05004 	movne	r5, #4
    b8dc:	1affffed 	bne	b898 <shell+0x17c>
    b8e0:	ebfff4f7 	bl	8cc4 <FBCharReset>
    b8e4:	e3a05000 	mov	r5, #0
    b8e8:	eaffffea 	b	b898 <shell+0x17c>
    b8ec:	e3550001 	cmp	r5, #1
    b8f0:	0a000005 	beq	b90c <shell+0x1f0>
    b8f4:	e3550002 	cmp	r5, #2
    b8f8:	0a000016 	beq	b958 <shell+0x23c>
    b8fc:	e3550004 	cmp	r5, #4
    b900:	0a000041 	beq	ba0c <shell+0x2f0>
    b904:	e3a05003 	mov	r5, #3
    b908:	eaffffe2 	b	b898 <shell+0x17c>
    b90c:	e28d300c 	add	r3, sp, #12
    b910:	e28d2008 	add	r2, sp, #8
    b914:	e28d1010 	add	r1, sp, #16
    b918:	ebfffd56 	bl	ae78 <MenuInputHandler>
    b91c:	e5dd5010 	ldrb	r5, [sp, #16]
    b920:	e3550000 	cmp	r5, #0
    b924:	1a000026 	bne	b9c4 <shell+0x2a8>
    b928:	e1a00005 	mov	r0, r5
    b92c:	ebfff4fb 	bl	8d20 <GFXColor>
    b930:	e357004d 	cmp	r7, #77	; 0x4d
    b934:	0a000038 	beq	ba1c <shell+0x300>
    b938:	e3570056 	cmp	r7, #86	; 0x56
    b93c:	0a00003e 	beq	ba3c <shell+0x320>
    b940:	e3570053 	cmp	r7, #83	; 0x53
    b944:	0a000040 	beq	ba4c <shell+0x330>
    b948:	e3570059 	cmp	r7, #89	; 0x59
    b94c:	0a000036 	beq	ba2c <shell+0x310>
    b950:	ebfff4db 	bl	8cc4 <FBCharReset>
    b954:	eaffffcf 	b	b898 <shell+0x17c>
    b958:	e3580004 	cmp	r8, #4
    b95c:	c3a05002 	movgt	r5, #2
    b960:	caffffcc 	bgt	b898 <shell+0x17c>
    b964:	e28d2058 	add	r2, sp, #88	; 0x58
    b968:	e0883088 	add	r3, r8, r8, lsl #1
    b96c:	e0823103 	add	r3, r2, r3, lsl #2
    b970:	e5132038 	ldr	r2, [r3, #-56]	; 0xffffffc8
    b974:	e3520000 	cmp	r2, #0
    b978:	da000007 	ble	b99c <shell+0x280>
    b97c:	e59f20e0 	ldr	r2, [pc, #224]	; ba64 <shell+0x348>
    b980:	e592c000 	ldr	ip, [r2]
    b984:	e243303c 	sub	r3, r3, #60	; 0x3c
    b988:	e8930007 	ldm	r3, {r0, r1, r2}
    b98c:	e58dc000 	str	ip, [sp]
    b990:	e59f30c4 	ldr	r3, [pc, #196]	; ba5c <shell+0x340>
    b994:	e5933000 	ldr	r3, [r3]
    b998:	ebfffeed 	bl	b554 <graph>
    b99c:	e3a05002 	mov	r5, #2
    b9a0:	e2888001 	add	r8, r8, #1
    b9a4:	eaffffbb 	b	b898 <shell+0x17c>
    b9a8:	ebfff4c5 	bl	8cc4 <FBCharReset>
    b9ac:	e3a00000 	mov	r0, #0
    b9b0:	ebfff4da 	bl	8d20 <GFXColor>
    b9b4:	e1a0100a 	mov	r1, sl
    b9b8:	e1a00004 	mov	r0, r4
    b9bc:	ebfffc7d 	bl	abb8 <SolveInputHandler>
    b9c0:	eaffffa0 	b	b848 <shell+0x12c>
    b9c4:	e28d1008 	add	r1, sp, #8
    b9c8:	e8910006 	ldm	r1, {r1, r2}
    b9cc:	e28d0010 	add	r0, sp, #16
    b9d0:	ebfffd57 	bl	af34 <showEntries>
    b9d4:	e3a05001 	mov	r5, #1
    b9d8:	eaffffae 	b	b898 <shell+0x17c>
    b9dc:	e3a00000 	mov	r0, #0
    b9e0:	ebfff4ce 	bl	8d20 <GFXColor>
    b9e4:	e3a08000 	mov	r8, #0
    b9e8:	e3a05002 	mov	r5, #2
    b9ec:	eaffffa9 	b	b898 <shell+0x17c>
    b9f0:	e3a00000 	mov	r0, #0
    b9f4:	ebfff4c9 	bl	8d20 <GFXColor>
    b9f8:	e3a01002 	mov	r1, #2
    b9fc:	e59f0070 	ldr	r0, [pc, #112]	; ba74 <shell+0x358>
    ba00:	ebfff4b7 	bl	8ce4 <FBWriteString>
    ba04:	e3a05004 	mov	r5, #4
    ba08:	eaffffa2 	b	b898 <shell+0x17c>
    ba0c:	e1a0100a 	mov	r1, sl
    ba10:	e28d201c 	add	r2, sp, #28
    ba14:	ebfffadf 	bl	a598 <EntryInputHandler>
    ba18:	eaffffad 	b	b8d4 <shell+0x1b8>
    ba1c:	e28d0010 	add	r0, sp, #16
    ba20:	ebfff75c 	bl	9798 <mathMenuInit>
    ba24:	e3a05001 	mov	r5, #1
    ba28:	eaffff9a 	b	b898 <shell+0x17c>
    ba2c:	e28d0010 	add	r0, sp, #16
    ba30:	ebfff89e 	bl	9cb0 <funcMenuInit>
    ba34:	e3a05001 	mov	r5, #1
    ba38:	eaffff96 	b	b898 <shell+0x17c>
    ba3c:	e28d0010 	add	r0, sp, #16
    ba40:	ebfff7c2 	bl	9950 <varsMenuInit>
    ba44:	e3a05001 	mov	r5, #1
    ba48:	eaffff92 	b	b898 <shell+0x17c>
    ba4c:	e28d0010 	add	r0, sp, #16
    ba50:	ebfff82a 	bl	9b00 <statMenuInit>
    ba54:	e3a05001 	mov	r5, #1
    ba58:	eaffff8e 	b	b898 <shell+0x17c>
    ba5c:	0000f6a8 	andeq	pc, r0, r8, lsr #13
    ba60:	00f9c550 	rscseq	ip, r9, r0, asr r5
    ba64:	0000f6b4 			; <UNDEFINED> instruction: 0x0000f6b4
    ba68:	000106c0 	andeq	r0, r1, r0, asr #13
    ba6c:	000116c0 	andeq	r1, r1, r0, asr #13
    ba70:	0000f5dc 	ldrdeq	pc, [r0], -ip
    ba74:	0000e058 	andeq	lr, r0, r8, asr r0

0000ba78 <KVGetValByKey>:
    ba78:	e28020d0 	add	r2, r0, #208	; 0xd0
    ba7c:	ea000002 	b	ba8c <KVGetValByKey+0x14>
    ba80:	e2800008 	add	r0, r0, #8
    ba84:	e1500002 	cmp	r0, r2
    ba88:	0a000004 	beq	baa0 <KVGetValByKey+0x28>
    ba8c:	e5d03000 	ldrb	r3, [r0]
    ba90:	e1530001 	cmp	r3, r1
    ba94:	1afffff9 	bne	ba80 <KVGetValByKey+0x8>
    ba98:	e5900004 	ldr	r0, [r0, #4]
    ba9c:	e12fff1e 	bx	lr
    baa0:	e3a00000 	mov	r0, #0
    baa4:	e12fff1e 	bx	lr

0000baa8 <setList>:
    baa8:	e92d0030 	push	{r4, r5}
    baac:	e3a0c001 	mov	ip, #1
    bab0:	e1a05003 	mov	r5, r3
    bab4:	e1a04002 	mov	r4, r2
    bab8:	e59f3018 	ldr	r3, [pc, #24]	; bad8 <setList+0x30>
    babc:	e0811400 	add	r1, r1, r0, lsl #8
    bac0:	e0830201 	add	r0, r3, r1, lsl #4
    bac4:	e5804008 	str	r4, [r0, #8]
    bac8:	e580500c 	str	r5, [r0, #12]
    bacc:	e783c201 	str	ip, [r3, r1, lsl #4]
    bad0:	e8bd0030 	pop	{r4, r5}
    bad4:	e12fff1e 	bx	lr
    bad8:	0000f6c0 	andeq	pc, r0, r0, asr #13

0000badc <timerInit>:
    badc:	e92d4010 	push	{r4, lr}
    bae0:	e3a01008 	mov	r1, #8
    bae4:	e59f0024 	ldr	r0, [pc, #36]	; bb10 <timerInit+0x34>
    bae8:	ebfff165 	bl	8084 <PUT32>
    baec:	e59f0020 	ldr	r0, [pc, #32]	; bb14 <timerInit+0x38>
    baf0:	ebfff165 	bl	808c <GET32>
    baf4:	e59f301c 	ldr	r3, [pc, #28]	; bb18 <timerInit+0x3c>
    baf8:	e2801ffa 	add	r1, r0, #1000	; 0x3e8
    bafc:	e59f0018 	ldr	r0, [pc, #24]	; bb1c <timerInit+0x40>
    bb00:	e5831000 	str	r1, [r3]
    bb04:	ebfff15e 	bl	8084 <PUT32>
    bb08:	e8bd4010 	pop	{r4, lr}
    bb0c:	e12fff1e 	bx	lr
    bb10:	2000b210 	andcs	fp, r0, r0, lsl r2
    bb14:	20003004 	andcs	r3, r0, r4
    bb18:	0000f6bc 			; <UNDEFINED> instruction: 0x0000f6bc
    bb1c:	20003018 	andcs	r3, r0, r8, lsl r0

0000bb20 <c_irq_handler>:
    bb20:	e92d4010 	push	{r4, lr}
    bb24:	e59f0044 	ldr	r0, [pc, #68]	; bb70 <c_irq_handler+0x50>
    bb28:	ebfff157 	bl	808c <GET32>
    bb2c:	e3500008 	cmp	r0, #8
    bb30:	0a000001 	beq	bb3c <c_irq_handler+0x1c>
    bb34:	e8bd4010 	pop	{r4, lr}
    bb38:	e12fff1e 	bx	lr
    bb3c:	e1a04000 	mov	r4, r0
    bb40:	e59f302c 	ldr	r3, [pc, #44]	; bb74 <c_irq_handler+0x54>
    bb44:	e5931000 	ldr	r1, [r3]
    bb48:	e2811c27 	add	r1, r1, #9984	; 0x2700
    bb4c:	e2811010 	add	r1, r1, #16
    bb50:	e59f0020 	ldr	r0, [pc, #32]	; bb78 <c_irq_handler+0x58>
    bb54:	e5831000 	str	r1, [r3]
    bb58:	ebfff149 	bl	8084 <PUT32>
    bb5c:	e1a01004 	mov	r1, r4
    bb60:	e59f0014 	ldr	r0, [pc, #20]	; bb7c <c_irq_handler+0x5c>
    bb64:	ebfff146 	bl	8084 <PUT32>
    bb68:	e8bd4010 	pop	{r4, lr}
    bb6c:	e12fff1e 	bx	lr
    bb70:	2000b204 	andcs	fp, r0, r4, lsl #4
    bb74:	0000f6bc 			; <UNDEFINED> instruction: 0x0000f6bc
    bb78:	20003018 	andcs	r3, r0, r8, lsl r0
    bb7c:	20003000 	andcs	r3, r0, r0

0000bb80 <strncat>:
    bb80:	e5d03000 	ldrb	r3, [r0]
    bb84:	e3530000 	cmp	r3, #0
    bb88:	e92d4010 	push	{r4, lr}
    bb8c:	0a000021 	beq	bc18 <strncat+0x98>
    bb90:	e3a04000 	mov	r4, #0
    bb94:	e280c001 	add	ip, r0, #1
    bb98:	e5dce000 	ldrb	lr, [ip]
    bb9c:	e35e0000 	cmp	lr, #0
    bba0:	e1a0300c 	mov	r3, ip
    bba4:	e2844001 	add	r4, r4, #1
    bba8:	e28cc001 	add	ip, ip, #1
    bbac:	1afffff9 	bne	bb98 <strncat+0x18>
    bbb0:	e3520000 	cmp	r2, #0
    bbb4:	c244e001 	subgt	lr, r4, #1
    bbb8:	c3a03000 	movgt	r3, #0
    bbbc:	c241c001 	subgt	ip, r1, #1
    bbc0:	c080e00e 	addgt	lr, r0, lr
    bbc4:	ca000004 	bgt	bbdc <strncat+0x5c>
    bbc8:	ea000008 	b	bbf0 <strncat+0x70>
    bbcc:	e2833001 	add	r3, r3, #1
    bbd0:	e1520003 	cmp	r2, r3
    bbd4:	e5ee1001 	strb	r1, [lr, #1]!
    bbd8:	0a000008 	beq	bc00 <strncat+0x80>
    bbdc:	e5fc1001 	ldrb	r1, [ip, #1]!
    bbe0:	e3510000 	cmp	r1, #0
    bbe4:	1afffff8 	bne	bbcc <strncat+0x4c>
    bbe8:	e0833004 	add	r3, r3, r4
    bbec:	e0803003 	add	r3, r0, r3
    bbf0:	e3a02000 	mov	r2, #0
    bbf4:	e5c32000 	strb	r2, [r3]
    bbf8:	e8bd4010 	pop	{r4, lr}
    bbfc:	e12fff1e 	bx	lr
    bc00:	e0823004 	add	r3, r2, r4
    bc04:	e3a02000 	mov	r2, #0
    bc08:	e0803003 	add	r3, r0, r3
    bc0c:	e5c32000 	strb	r2, [r3]
    bc10:	e8bd4010 	pop	{r4, lr}
    bc14:	e12fff1e 	bx	lr
    bc18:	e1a04003 	mov	r4, r3
    bc1c:	e1a03000 	mov	r3, r0
    bc20:	eaffffe2 	b	bbb0 <strncat+0x30>

0000bc24 <strcat>:
    bc24:	e5d12000 	ldrb	r2, [r1]
    bc28:	e3520000 	cmp	r2, #0
    bc2c:	e92d4030 	push	{r4, r5, lr}
    bc30:	0a00001e 	beq	bcb0 <strcat+0x8c>
    bc34:	e1a03001 	mov	r3, r1
    bc38:	e2614001 	rsb	r4, r1, #1
    bc3c:	e084e003 	add	lr, r4, r3
    bc40:	e5f3c001 	ldrb	ip, [r3, #1]!
    bc44:	e35c0000 	cmp	ip, #0
    bc48:	1afffffb 	bne	bc3c <strcat+0x18>
    bc4c:	e5d04000 	ldrb	r4, [r0]
    bc50:	e3540000 	cmp	r4, #0
    bc54:	0a000005 	beq	bc70 <strcat+0x4c>
    bc58:	e1a03000 	mov	r3, r0
    bc5c:	e2605001 	rsb	r5, r0, #1
    bc60:	e0854003 	add	r4, r5, r3
    bc64:	e5f3c001 	ldrb	ip, [r3, #1]!
    bc68:	e35c0000 	cmp	ip, #0
    bc6c:	1afffffb 	bne	bc60 <strcat+0x3c>
    bc70:	e244c001 	sub	ip, r4, #1
    bc74:	e3a03000 	mov	r3, #0
    bc78:	e080c00c 	add	ip, r0, ip
    bc7c:	ea000000 	b	bc84 <strcat+0x60>
    bc80:	e5f12001 	ldrb	r2, [r1, #1]!
    bc84:	e3520000 	cmp	r2, #0
    bc88:	0a000003 	beq	bc9c <strcat+0x78>
    bc8c:	e2833001 	add	r3, r3, #1
    bc90:	e153000e 	cmp	r3, lr
    bc94:	e5ec2001 	strb	r2, [ip, #1]!
    bc98:	dafffff8 	ble	bc80 <strcat+0x5c>
    bc9c:	e3a02000 	mov	r2, #0
    bca0:	e0803003 	add	r3, r0, r3
    bca4:	e7c32004 	strb	r2, [r3, r4]
    bca8:	e8bd4030 	pop	{r4, r5, lr}
    bcac:	e12fff1e 	bx	lr
    bcb0:	e1a0e002 	mov	lr, r2
    bcb4:	eaffffe4 	b	bc4c <strcat+0x28>

0000bcb8 <strcharcat>:
    bcb8:	e5d03000 	ldrb	r3, [r0]
    bcbc:	e3530000 	cmp	r3, #0
    bcc0:	e52de004 	push	{lr}		; (str lr, [sp, #-4]!)
    bcc4:	0a00000d 	beq	bd00 <strcharcat+0x48>
    bcc8:	e3a02000 	mov	r2, #0
    bccc:	e2803001 	add	r3, r0, #1
    bcd0:	e1a0c003 	mov	ip, r3
    bcd4:	e4d3e001 	ldrb	lr, [r3], #1
    bcd8:	e35e0000 	cmp	lr, #0
    bcdc:	e1a0e002 	mov	lr, r2
    bce0:	e2822001 	add	r2, r2, #1
    bce4:	1afffff9 	bne	bcd0 <strcharcat+0x18>
    bce8:	e28ee002 	add	lr, lr, #2
    bcec:	e3a03000 	mov	r3, #0
    bcf0:	e5cc1000 	strb	r1, [ip]
    bcf4:	e7c0300e 	strb	r3, [r0, lr]
    bcf8:	e49de004 	pop	{lr}		; (ldr lr, [sp], #4)
    bcfc:	e12fff1e 	bx	lr
    bd00:	e1a0c000 	mov	ip, r0
    bd04:	e3a0e001 	mov	lr, #1
    bd08:	eafffff7 	b	bcec <strcharcat+0x34>

0000bd0c <strncpy>:
    bd0c:	e3520000 	cmp	r2, #0
    bd10:	d12fff1e 	bxle	lr
    bd14:	e2403001 	sub	r3, r0, #1
    bd18:	e92d4030 	push	{r4, r5, lr}
    bd1c:	e241e001 	sub	lr, r1, #1
    bd20:	e0834002 	add	r4, r3, r2
    bd24:	e2605001 	rsb	r5, r0, #1
    bd28:	ea000002 	b	bd38 <strncpy+0x2c>
    bd2c:	e5e3c001 	strb	ip, [r3, #1]!
    bd30:	e1530004 	cmp	r3, r4
    bd34:	0a00000a 	beq	bd64 <strncpy+0x58>
    bd38:	e5fec001 	ldrb	ip, [lr, #1]!
    bd3c:	e35c0000 	cmp	ip, #0
    bd40:	e0851003 	add	r1, r5, r3
    bd44:	1afffff8 	bne	bd2c <strncpy+0x20>
    bd48:	e1520001 	cmp	r2, r1
    bd4c:	da000004 	ble	bd64 <strncpy+0x58>
    bd50:	e2413001 	sub	r3, r1, #1
    bd54:	e0803003 	add	r3, r0, r3
    bd58:	e5e3c001 	strb	ip, [r3, #1]!
    bd5c:	e1530004 	cmp	r3, r4
    bd60:	1afffffc 	bne	bd58 <strncpy+0x4c>
    bd64:	e8bd4030 	pop	{r4, r5, lr}
    bd68:	e12fff1e 	bx	lr

0000bd6c <strcpy>:
    bd6c:	e92d4070 	push	{r4, r5, r6, lr}
    bd70:	e5d13000 	ldrb	r3, [r1]
    bd74:	e3530000 	cmp	r3, #0
    bd78:	0a00001d 	beq	bdf4 <strcpy+0x88>
    bd7c:	e1a02001 	mov	r2, r1
    bd80:	e2614001 	rsb	r4, r1, #1
    bd84:	e084e002 	add	lr, r4, r2
    bd88:	e5f2c001 	ldrb	ip, [r2, #1]!
    bd8c:	e35c0000 	cmp	ip, #0
    bd90:	1afffffb 	bne	bd84 <strcpy+0x18>
    bd94:	e28e6001 	add	r6, lr, #1
    bd98:	e2402001 	sub	r2, r0, #1
    bd9c:	e08e5000 	add	r5, lr, r0
    bda0:	e2604001 	rsb	r4, r0, #1
    bda4:	ea000000 	b	bdac <strcpy+0x40>
    bda8:	e5f13001 	ldrb	r3, [r1, #1]!
    bdac:	e3530000 	cmp	r3, #0
    bdb0:	e084c002 	add	ip, r4, r2
    bdb4:	0a000004 	beq	bdcc <strcpy+0x60>
    bdb8:	e5e23001 	strb	r3, [r2, #1]!
    bdbc:	e1520005 	cmp	r2, r5
    bdc0:	1afffff8 	bne	bda8 <strcpy+0x3c>
    bdc4:	e8bd4070 	pop	{r4, r5, r6, lr}
    bdc8:	e12fff1e 	bx	lr
    bdcc:	e156000c 	cmp	r6, ip
    bdd0:	dafffffb 	ble	bdc4 <strcpy+0x58>
    bdd4:	e1e04000 	mvn	r4, r0
    bdd8:	e080200c 	add	r2, r0, ip
    bddc:	e4c23001 	strb	r3, [r2], #1
    bde0:	e0841002 	add	r1, r4, r2
    bde4:	e151000e 	cmp	r1, lr
    bde8:	bafffffb 	blt	bddc <strcpy+0x70>
    bdec:	e8bd4070 	pop	{r4, r5, r6, lr}
    bdf0:	e12fff1e 	bx	lr
    bdf4:	e3a06001 	mov	r6, #1
    bdf8:	e1a0e003 	mov	lr, r3
    bdfc:	eaffffe5 	b	bd98 <strcpy+0x2c>

0000be00 <strlen>:
    be00:	e1a03000 	mov	r3, r0
    be04:	e5d00000 	ldrb	r0, [r0]
    be08:	e3500000 	cmp	r0, #0
    be0c:	012fff1e 	bxeq	lr
    be10:	e2631001 	rsb	r1, r3, #1
    be14:	e0810003 	add	r0, r1, r3
    be18:	e5f32001 	ldrb	r2, [r3, #1]!
    be1c:	e3520000 	cmp	r2, #0
    be20:	1afffffb 	bne	be14 <strlen+0x14>
    be24:	e12fff1e 	bx	lr

0000be28 <atod>:
    be28:	e92d4ff0 	push	{r4, r5, r6, r7, r8, r9, sl, fp, lr}
    be2c:	e28db020 	add	fp, sp, #32
    be30:	e24dd00c 	sub	sp, sp, #12
    be34:	e5d03000 	ldrb	r3, [r0]
    be38:	e3530000 	cmp	r3, #0
    be3c:	0a000066 	beq	bfdc <atod+0x1b4>
    be40:	e1a0e000 	mov	lr, r0
    be44:	e1a01000 	mov	r1, r0
    be48:	e3a02000 	mov	r2, #0
    be4c:	e5f1c001 	ldrb	ip, [r1, #1]!
    be50:	e35c0000 	cmp	ip, #0
    be54:	e1a0a002 	mov	sl, r2
    be58:	e2822001 	add	r2, r2, #1
    be5c:	1afffffa 	bne	be4c <atod+0x24>
    be60:	e1a01102 	lsl	r1, r2, #2
    be64:	e2811007 	add	r1, r1, #7
    be68:	e3c11007 	bic	r1, r1, #7
    be6c:	e04dd001 	sub	sp, sp, r1
    be70:	e1a0900d 	mov	r9, sp
    be74:	e3a04000 	mov	r4, #0
    be78:	e353005f 	cmp	r3, #95	; 0x5f
    be7c:	059f5174 	ldreq	r5, [pc, #372]	; bff8 <atod+0x1d0>
    be80:	159f5174 	ldrne	r5, [pc, #372]	; bffc <atod+0x1d4>
    be84:	e2499004 	sub	r9, r9, #4
    be88:	e2400001 	sub	r0, r0, #1
    be8c:	e1a01009 	mov	r1, r9
    be90:	e50b402c 	str	r4, [fp, #-44]	; 0xffffffd4
    be94:	e50b5028 	str	r5, [fp, #-40]	; 0xffffffd8
    be98:	e0802002 	add	r2, r0, r2
    be9c:	ea000000 	b	bea4 <atod+0x7c>
    bea0:	e5fe3001 	ldrb	r3, [lr, #1]!
    bea4:	e353002e 	cmp	r3, #46	; 0x2e
    bea8:	03e03000 	mvneq	r3, #0
    beac:	12433030 	subne	r3, r3, #48	; 0x30
    beb0:	e15e0002 	cmp	lr, r2
    beb4:	e5a13004 	str	r3, [r1, #4]!
    beb8:	1afffff8 	bne	bea0 <atod+0x78>
    bebc:	e3a06000 	mov	r6, #0
    bec0:	e3a04000 	mov	r4, #0
    bec4:	e3a05000 	mov	r5, #0
    bec8:	e1a08006 	mov	r8, r6
    becc:	ea000015 	b	bf28 <atod+0x100>
    bed0:	e35c0000 	cmp	ip, #0
    bed4:	e0883108 	add	r3, r8, r8, lsl #2
    bed8:	00878083 	addeq	r8, r7, r3, lsl #1
    bedc:	0a00000e 	beq	bf1c <atod+0xf4>
    bee0:	e3a02000 	mov	r2, #0
    bee4:	e59f3114 	ldr	r3, [pc, #276]	; c000 <atod+0x1d8>
    bee8:	e1a00004 	mov	r0, r4
    beec:	e1a01005 	mov	r1, r5
    bef0:	eb000674 	bl	d8c8 <__aeabi_dmul>
    bef4:	e1a04000 	mov	r4, r0
    bef8:	e1a05001 	mov	r5, r1
    befc:	e1a00007 	mov	r0, r7
    bf00:	eb000637 	bl	d7e4 <__aeabi_i2d>
    bf04:	e1a02004 	mov	r2, r4
    bf08:	e1a03005 	mov	r3, r5
    bf0c:	eb000567 	bl	d4b0 <__adddf3>
    bf10:	e3a0c001 	mov	ip, #1
    bf14:	e1a04000 	mov	r4, r0
    bf18:	e1a05001 	mov	r5, r1
    bf1c:	e156000a 	cmp	r6, sl
    bf20:	e2866001 	add	r6, r6, #1
    bf24:	0a000008 	beq	bf4c <atod+0x124>
    bf28:	e5b97004 	ldr	r7, [r9, #4]!
    bf2c:	e3770001 	cmn	r7, #1
    bf30:	1affffe6 	bne	bed0 <atod+0xa8>
    bf34:	e35c0000 	cmp	ip, #0
    bf38:	03a0c001 	moveq	ip, #1
    bf3c:	1affffe7 	bne	bee0 <atod+0xb8>
    bf40:	e156000a 	cmp	r6, sl
    bf44:	e2866001 	add	r6, r6, #1
    bf48:	1afffff6 	bne	bf28 <atod+0x100>
    bf4c:	e3a02000 	mov	r2, #0
    bf50:	e1a00004 	mov	r0, r4
    bf54:	e1a01005 	mov	r1, r5
    bf58:	e59f309c 	ldr	r3, [pc, #156]	; bffc <atod+0x1d4>
    bf5c:	eb0007c5 	bl	de78 <__aeabi_dcmpge>
    bf60:	e3500000 	cmp	r0, #0
    bf64:	0a00000f 	beq	bfa8 <atod+0x180>
    bf68:	e3a06000 	mov	r6, #0
    bf6c:	e3a09000 	mov	r9, #0
    bf70:	e59f7088 	ldr	r7, [pc, #136]	; c000 <atod+0x1d8>
    bf74:	e59fa080 	ldr	sl, [pc, #128]	; bffc <atod+0x1d4>
    bf78:	e1a00004 	mov	r0, r4
    bf7c:	e1a01005 	mov	r1, r5
    bf80:	e1a02006 	mov	r2, r6
    bf84:	e1a03007 	mov	r3, r7
    bf88:	eb0006f2 	bl	db58 <__aeabi_ddiv>
    bf8c:	e1a02009 	mov	r2, r9
    bf90:	e1a0300a 	mov	r3, sl
    bf94:	e1a04000 	mov	r4, r0
    bf98:	e1a05001 	mov	r5, r1
    bf9c:	eb0007b5 	bl	de78 <__aeabi_dcmpge>
    bfa0:	e3500000 	cmp	r0, #0
    bfa4:	1afffff3 	bne	bf78 <atod+0x150>
    bfa8:	e1a00008 	mov	r0, r8
    bfac:	eb00060c 	bl	d7e4 <__aeabi_i2d>
    bfb0:	e1a02004 	mov	r2, r4
    bfb4:	e1a03005 	mov	r3, r5
    bfb8:	eb00053c 	bl	d4b0 <__adddf3>
    bfbc:	e1a02000 	mov	r2, r0
    bfc0:	e1a03001 	mov	r3, r1
    bfc4:	e24b102c 	sub	r1, fp, #44	; 0x2c
    bfc8:	e8910003 	ldm	r1, {r0, r1}
    bfcc:	eb00063d 	bl	d8c8 <__aeabi_dmul>
    bfd0:	e24bd020 	sub	sp, fp, #32
    bfd4:	e8bd4ff0 	pop	{r4, r5, r6, r7, r8, r9, sl, fp, lr}
    bfd8:	e12fff1e 	bx	lr
    bfdc:	e3a03000 	mov	r3, #0
    bfe0:	e59f4014 	ldr	r4, [pc, #20]	; bffc <atod+0x1d4>
    bfe4:	e3a02000 	mov	r2, #0
    bfe8:	e50b302c 	str	r3, [fp, #-44]	; 0xffffffd4
    bfec:	e50b4028 	str	r4, [fp, #-40]	; 0xffffffd8
    bff0:	e3a03000 	mov	r3, #0
    bff4:	eafffff2 	b	bfc4 <atod+0x19c>
    bff8:	bff00000 	svclt	0x00f00000	; IMB
    bffc:	3ff00000 	svccc	0x00f00000	; IMB
    c000:	40240000 	eormi	r0, r4, r0

0000c004 <strncmp>:
    c004:	e92d4070 	push	{r4, r5, r6, lr}
    c008:	e5d06000 	ldrb	r6, [r0]
    c00c:	e3560000 	cmp	r6, #0
    c010:	0a000022 	beq	c0a0 <strncmp+0x9c>
    c014:	e1a03000 	mov	r3, r0
    c018:	e2604001 	rsb	r4, r0, #1
    c01c:	e084e003 	add	lr, r4, r3
    c020:	e5f3c001 	ldrb	ip, [r3, #1]!
    c024:	e35c0000 	cmp	ip, #0
    c028:	1afffffb 	bne	c01c <strncmp+0x18>
    c02c:	e5d1c000 	ldrb	ip, [r1]
    c030:	e35c0000 	cmp	ip, #0
    c034:	0a000012 	beq	c084 <strncmp+0x80>
    c038:	e1a03001 	mov	r3, r1
    c03c:	e2615001 	rsb	r5, r1, #1
    c040:	e0854003 	add	r4, r5, r3
    c044:	e5f3c001 	ldrb	ip, [r3, #1]!
    c048:	e35c0000 	cmp	ip, #0
    c04c:	1afffffb 	bne	c040 <strncmp+0x3c>
    c050:	e15e0004 	cmp	lr, r4
    c054:	1a00000a 	bne	c084 <strncmp+0x80>
    c058:	e3520000 	cmp	r2, #0
    c05c:	da000014 	ble	c0b4 <strncmp+0xb0>
    c060:	e2422001 	sub	r2, r2, #1
    c064:	e0812002 	add	r2, r1, r2
    c068:	e2411001 	sub	r1, r1, #1
    c06c:	e5f13001 	ldrb	r3, [r1, #1]!
    c070:	e1530006 	cmp	r3, r6
    c074:	0a000005 	beq	c090 <strncmp+0x8c>
    c078:	e3a00000 	mov	r0, #0
    c07c:	e8bd4070 	pop	{r4, r5, r6, lr}
    c080:	e12fff1e 	bx	lr
    c084:	e1a0000c 	mov	r0, ip
    c088:	e8bd4070 	pop	{r4, r5, r6, lr}
    c08c:	e12fff1e 	bx	lr
    c090:	e1510002 	cmp	r1, r2
    c094:	0a000006 	beq	c0b4 <strncmp+0xb0>
    c098:	e5f06001 	ldrb	r6, [r0, #1]!
    c09c:	eafffff2 	b	c06c <strncmp+0x68>
    c0a0:	e5d13000 	ldrb	r3, [r1]
    c0a4:	e3530000 	cmp	r3, #0
    c0a8:	11a0e006 	movne	lr, r6
    c0ac:	1affffe1 	bne	c038 <strncmp+0x34>
    c0b0:	eaffffe8 	b	c058 <strncmp+0x54>
    c0b4:	e3a00001 	mov	r0, #1
    c0b8:	eafffff2 	b	c088 <strncmp+0x84>

0000c0bc <strcmp>:
    c0bc:	e5d12000 	ldrb	r2, [r1]
    c0c0:	e3520000 	cmp	r2, #0
    c0c4:	0a000008 	beq	c0ec <strcmp+0x30>
    c0c8:	e1a03001 	mov	r3, r1
    c0cc:	e52de004 	push	{lr}		; (str lr, [sp, #-4]!)
    c0d0:	e261e001 	rsb	lr, r1, #1
    c0d4:	e08e2003 	add	r2, lr, r3
    c0d8:	e5f3c001 	ldrb	ip, [r3, #1]!
    c0dc:	e35c0000 	cmp	ip, #0
    c0e0:	1afffffb 	bne	c0d4 <strcmp+0x18>
    c0e4:	e49de004 	pop	{lr}		; (ldr lr, [sp], #4)
    c0e8:	eaffffc5 	b	c004 <strncmp>
    c0ec:	eaffffc4 	b	c004 <strncmp>

0000c0f0 <ln.part.0>:
    c0f0:	e92d4ff8 	push	{r3, r4, r5, r6, r7, r8, r9, sl, fp, lr}
    c0f4:	e3a02000 	mov	r2, #0
    c0f8:	e59f30d8 	ldr	r3, [pc, #216]	; c1d8 <ln.part.0+0xe8>
    c0fc:	e1a06000 	mov	r6, r0
    c100:	e1a07001 	mov	r7, r1
    c104:	eb0004e8 	bl	d4ac <__aeabi_dsub>
    c108:	e3a02000 	mov	r2, #0
    c10c:	e1a04000 	mov	r4, r0
    c110:	e1a05001 	mov	r5, r1
    c114:	e1a00006 	mov	r0, r6
    c118:	e1a01007 	mov	r1, r7
    c11c:	e59f30b4 	ldr	r3, [pc, #180]	; c1d8 <ln.part.0+0xe8>
    c120:	eb0004e2 	bl	d4b0 <__adddf3>
    c124:	e1a02000 	mov	r2, r0
    c128:	e1a03001 	mov	r3, r1
    c12c:	e1a00004 	mov	r0, r4
    c130:	e1a01005 	mov	r1, r5
    c134:	eb000687 	bl	db58 <__aeabi_ddiv>
    c138:	e3a0b003 	mov	fp, #3
    c13c:	e1a06000 	mov	r6, r0
    c140:	e1a07001 	mov	r7, r1
    c144:	e1a08000 	mov	r8, r0
    c148:	e1a09001 	mov	r9, r1
    c14c:	e3a0a000 	mov	sl, #0
    c150:	e3a04000 	mov	r4, #0
    c154:	e59f507c 	ldr	r5, [pc, #124]	; c1d8 <ln.part.0+0xe8>
    c158:	e1a00004 	mov	r0, r4
    c15c:	e1a01005 	mov	r1, r5
    c160:	e1a02006 	mov	r2, r6
    c164:	e1a03007 	mov	r3, r7
    c168:	eb0005d6 	bl	d8c8 <__aeabi_dmul>
    c16c:	e28aa001 	add	sl, sl, #1
    c170:	e15b000a 	cmp	fp, sl
    c174:	e1a04000 	mov	r4, r0
    c178:	e1a05001 	mov	r5, r1
    c17c:	1afffff5 	bne	c158 <ln.part.0+0x68>
    c180:	e1a0000b 	mov	r0, fp
    c184:	eb000596 	bl	d7e4 <__aeabi_i2d>
    c188:	e1a02000 	mov	r2, r0
    c18c:	e1a03001 	mov	r3, r1
    c190:	e1a00004 	mov	r0, r4
    c194:	e1a01005 	mov	r1, r5
    c198:	eb00066e 	bl	db58 <__aeabi_ddiv>
    c19c:	e1a02000 	mov	r2, r0
    c1a0:	e1a03001 	mov	r3, r1
    c1a4:	e1a00008 	mov	r0, r8
    c1a8:	e1a01009 	mov	r1, r9
    c1ac:	eb0004bf 	bl	d4b0 <__adddf3>
    c1b0:	e28bb002 	add	fp, fp, #2
    c1b4:	e35b0015 	cmp	fp, #21
    c1b8:	e1a08000 	mov	r8, r0
    c1bc:	e1a09001 	mov	r9, r1
    c1c0:	1affffe1 	bne	c14c <ln.part.0+0x5c>
    c1c4:	e1a03001 	mov	r3, r1
    c1c8:	e1a02000 	mov	r2, r0
    c1cc:	eb0004b7 	bl	d4b0 <__adddf3>
    c1d0:	e8bd4ff8 	pop	{r3, r4, r5, r6, r7, r8, r9, sl, fp, lr}
    c1d4:	e12fff1e 	bx	lr
    c1d8:	3ff00000 	svccc	0x00f00000	; IMB

0000c1dc <trigCos>:
    c1dc:	e92d4ff0 	push	{r4, r5, r6, r7, r8, r9, sl, fp, lr}
    c1e0:	e3e08000 	mvn	r8, #0
    c1e4:	e3a0b000 	mov	fp, #0
    c1e8:	e3a03000 	mov	r3, #0
    c1ec:	e3a04000 	mov	r4, #0
    c1f0:	e1a0a008 	mov	sl, r8
    c1f4:	e1a06000 	mov	r6, r0
    c1f8:	e1a07001 	mov	r7, r1
    c1fc:	e1a0800b 	mov	r8, fp
    c200:	e24dd014 	sub	sp, sp, #20
    c204:	e88d0018 	stm	sp, {r3, r4}
    c208:	e3580000 	cmp	r8, #0
    c20c:	e26aa000 	rsb	sl, sl, #0
    c210:	0a000029 	beq	c2bc <trigCos+0xe0>
    c214:	e1a09008 	mov	r9, r8
    c218:	e3a00001 	mov	r0, #1
    c21c:	e1a03009 	mov	r3, r9
    c220:	e2599001 	subs	r9, r9, #1
    c224:	e0000093 	mul	r0, r3, r0
    c228:	1afffffb 	bne	c21c <trigCos+0x40>
    c22c:	eb00056c 	bl	d7e4 <__aeabi_i2d>
    c230:	e3a04000 	mov	r4, #0
    c234:	e58d0008 	str	r0, [sp, #8]
    c238:	e58d100c 	str	r1, [sp, #12]
    c23c:	e59f509c 	ldr	r5, [pc, #156]	; c2e0 <trigCos+0x104>
    c240:	e1a00004 	mov	r0, r4
    c244:	e1a01005 	mov	r1, r5
    c248:	e1a02006 	mov	r2, r6
    c24c:	e1a03007 	mov	r3, r7
    c250:	eb00059c 	bl	d8c8 <__aeabi_dmul>
    c254:	e2899001 	add	r9, r9, #1
    c258:	e1590008 	cmp	r9, r8
    c25c:	e1a04000 	mov	r4, r0
    c260:	e1a05001 	mov	r5, r1
    c264:	bafffff5 	blt	c240 <trigCos+0x64>
    c268:	e1a0000a 	mov	r0, sl
    c26c:	eb00055c 	bl	d7e4 <__aeabi_i2d>
    c270:	e28d3008 	add	r3, sp, #8
    c274:	e893000c 	ldm	r3, {r2, r3}
    c278:	eb000636 	bl	db58 <__aeabi_ddiv>
    c27c:	e1a02004 	mov	r2, r4
    c280:	e1a03005 	mov	r3, r5
    c284:	eb00058f 	bl	d8c8 <__aeabi_dmul>
    c288:	e1a02000 	mov	r2, r0
    c28c:	e1a03001 	mov	r3, r1
    c290:	e89d0003 	ldm	sp, {r0, r1}
    c294:	eb000485 	bl	d4b0 <__adddf3>
    c298:	e1a02000 	mov	r2, r0
    c29c:	e1a03001 	mov	r3, r1
    c2a0:	e2888002 	add	r8, r8, #2
    c2a4:	e3580014 	cmp	r8, #20
    c2a8:	e88d000c 	stm	sp, {r2, r3}
    c2ac:	1affffd5 	bne	c208 <trigCos+0x2c>
    c2b0:	e28dd014 	add	sp, sp, #20
    c2b4:	e8bd4ff0 	pop	{r4, r5, r6, r7, r8, r9, sl, fp, lr}
    c2b8:	e12fff1e 	bx	lr
    c2bc:	e1a0000a 	mov	r0, sl
    c2c0:	eb000547 	bl	d7e4 <__aeabi_i2d>
    c2c4:	e1a02000 	mov	r2, r0
    c2c8:	e1a03001 	mov	r3, r1
    c2cc:	e89d0003 	ldm	sp, {r0, r1}
    c2d0:	eb000476 	bl	d4b0 <__adddf3>
    c2d4:	e3a08002 	mov	r8, #2
    c2d8:	e88d0003 	stm	sp, {r0, r1}
    c2dc:	eaffffc9 	b	c208 <trigCos+0x2c>
    c2e0:	3ff00000 	svccc	0x00f00000	; IMB

0000c2e4 <trigSin>:
    c2e4:	e92d4ff0 	push	{r4, r5, r6, r7, r8, r9, sl, fp, lr}
    c2e8:	e3e08000 	mvn	r8, #0
    c2ec:	e3a0b001 	mov	fp, #1
    c2f0:	e3a03000 	mov	r3, #0
    c2f4:	e3a04000 	mov	r4, #0
    c2f8:	e1a0a008 	mov	sl, r8
    c2fc:	e1a06000 	mov	r6, r0
    c300:	e1a07001 	mov	r7, r1
    c304:	e1a0800b 	mov	r8, fp
    c308:	e24dd014 	sub	sp, sp, #20
    c30c:	e88d0018 	stm	sp, {r3, r4}
    c310:	e1a09008 	mov	r9, r8
    c314:	e3a00001 	mov	r0, #1
    c318:	e26aa000 	rsb	sl, sl, #0
    c31c:	e1a03009 	mov	r3, r9
    c320:	e2599001 	subs	r9, r9, #1
    c324:	e0000093 	mul	r0, r3, r0
    c328:	1afffffb 	bne	c31c <trigSin+0x38>
    c32c:	eb00052c 	bl	d7e4 <__aeabi_i2d>
    c330:	e3a04000 	mov	r4, #0
    c334:	e58d0008 	str	r0, [sp, #8]
    c338:	e58d100c 	str	r1, [sp, #12]
    c33c:	e59f5078 	ldr	r5, [pc, #120]	; c3bc <trigSin+0xd8>
    c340:	e1a00004 	mov	r0, r4
    c344:	e1a01005 	mov	r1, r5
    c348:	e1a02006 	mov	r2, r6
    c34c:	e1a03007 	mov	r3, r7
    c350:	eb00055c 	bl	d8c8 <__aeabi_dmul>
    c354:	e2899001 	add	r9, r9, #1
    c358:	e1590008 	cmp	r9, r8
    c35c:	e1a04000 	mov	r4, r0
    c360:	e1a05001 	mov	r5, r1
    c364:	1afffff5 	bne	c340 <trigSin+0x5c>
    c368:	e1a0000a 	mov	r0, sl
    c36c:	eb00051c 	bl	d7e4 <__aeabi_i2d>
    c370:	e28d3008 	add	r3, sp, #8
    c374:	e893000c 	ldm	r3, {r2, r3}
    c378:	eb0005f6 	bl	db58 <__aeabi_ddiv>
    c37c:	e1a02004 	mov	r2, r4
    c380:	e1a03005 	mov	r3, r5
    c384:	eb00054f 	bl	d8c8 <__aeabi_dmul>
    c388:	e1a02000 	mov	r2, r0
    c38c:	e1a03001 	mov	r3, r1
    c390:	e89d0003 	ldm	sp, {r0, r1}
    c394:	eb000445 	bl	d4b0 <__adddf3>
    c398:	e1a02000 	mov	r2, r0
    c39c:	e1a03001 	mov	r3, r1
    c3a0:	e3590013 	cmp	r9, #19
    c3a4:	e88d000c 	stm	sp, {r2, r3}
    c3a8:	e2898002 	add	r8, r9, #2
    c3ac:	1affffd7 	bne	c310 <trigSin+0x2c>
    c3b0:	e28dd014 	add	sp, sp, #20
    c3b4:	e8bd4ff0 	pop	{r4, r5, r6, r7, r8, r9, sl, fp, lr}
    c3b8:	e12fff1e 	bx	lr
    c3bc:	3ff00000 	svccc	0x00f00000	; IMB

0000c3c0 <trigTan>:
    c3c0:	e92d4ff0 	push	{r4, r5, r6, r7, r8, r9, sl, fp, lr}
    c3c4:	e3a03000 	mov	r3, #0
    c3c8:	e3a04000 	mov	r4, #0
    c3cc:	e3a0a001 	mov	sl, #1
    c3d0:	e1a08000 	mov	r8, r0
    c3d4:	e1a09001 	mov	r9, r1
    c3d8:	e3e0b000 	mvn	fp, #0
    c3dc:	e24dd01c 	sub	sp, sp, #28
    c3e0:	e88d0018 	stm	sp, {r3, r4}
    c3e4:	e1a0400a 	mov	r4, sl
    c3e8:	e3a00001 	mov	r0, #1
    c3ec:	e26bb000 	rsb	fp, fp, #0
    c3f0:	e1a03004 	mov	r3, r4
    c3f4:	e2544001 	subs	r4, r4, #1
    c3f8:	e0000093 	mul	r0, r3, r0
    c3fc:	1afffffb 	bne	c3f0 <trigTan+0x30>
    c400:	eb0004f7 	bl	d7e4 <__aeabi_i2d>
    c404:	e1a05004 	mov	r5, r4
    c408:	e3a06000 	mov	r6, #0
    c40c:	e58d0008 	str	r0, [sp, #8]
    c410:	e58d100c 	str	r1, [sp, #12]
    c414:	e59f7174 	ldr	r7, [pc, #372]	; c590 <trigTan+0x1d0>
    c418:	e1a00006 	mov	r0, r6
    c41c:	e1a01007 	mov	r1, r7
    c420:	e1a02008 	mov	r2, r8
    c424:	e1a03009 	mov	r3, r9
    c428:	eb000526 	bl	d8c8 <__aeabi_dmul>
    c42c:	e2855001 	add	r5, r5, #1
    c430:	e155000a 	cmp	r5, sl
    c434:	e1a06000 	mov	r6, r0
    c438:	e1a07001 	mov	r7, r1
    c43c:	1afffff5 	bne	c418 <trigTan+0x58>
    c440:	e1a0000b 	mov	r0, fp
    c444:	eb0004e6 	bl	d7e4 <__aeabi_i2d>
    c448:	e28d3008 	add	r3, sp, #8
    c44c:	e893000c 	ldm	r3, {r2, r3}
    c450:	eb0005c0 	bl	db58 <__aeabi_ddiv>
    c454:	e1a02006 	mov	r2, r6
    c458:	e1a03007 	mov	r3, r7
    c45c:	eb000519 	bl	d8c8 <__aeabi_dmul>
    c460:	e1a02000 	mov	r2, r0
    c464:	e1a03001 	mov	r3, r1
    c468:	e89d0003 	ldm	sp, {r0, r1}
    c46c:	eb00040f 	bl	d4b0 <__adddf3>
    c470:	e3550013 	cmp	r5, #19
    c474:	e88d0003 	stm	sp, {r0, r1}
    c478:	e285a002 	add	sl, r5, #2
    c47c:	1affffd8 	bne	c3e4 <trigTan+0x24>
    c480:	e3a03000 	mov	r3, #0
    c484:	e3a02000 	mov	r2, #0
    c488:	e3e0a000 	mvn	sl, #0
    c48c:	e58d2008 	str	r2, [sp, #8]
    c490:	e58d300c 	str	r3, [sp, #12]
    c494:	e1a03004 	mov	r3, r4
    c498:	e1a0400a 	mov	r4, sl
    c49c:	e1a0a003 	mov	sl, r3
    c4a0:	e35a0000 	cmp	sl, #0
    c4a4:	e2644000 	rsb	r4, r4, #0
    c4a8:	0a00002d 	beq	c564 <trigTan+0x1a4>
    c4ac:	e1a0b00a 	mov	fp, sl
    c4b0:	e3a00001 	mov	r0, #1
    c4b4:	e1a0300b 	mov	r3, fp
    c4b8:	e25bb001 	subs	fp, fp, #1
    c4bc:	e0000093 	mul	r0, r3, r0
    c4c0:	1afffffb 	bne	c4b4 <trigTan+0xf4>
    c4c4:	eb0004c6 	bl	d7e4 <__aeabi_i2d>
    c4c8:	e3a06000 	mov	r6, #0
    c4cc:	e58d0010 	str	r0, [sp, #16]
    c4d0:	e58d1014 	str	r1, [sp, #20]
    c4d4:	e59f70b4 	ldr	r7, [pc, #180]	; c590 <trigTan+0x1d0>
    c4d8:	e1a00006 	mov	r0, r6
    c4dc:	e1a01007 	mov	r1, r7
    c4e0:	e1a02008 	mov	r2, r8
    c4e4:	e1a03009 	mov	r3, r9
    c4e8:	eb0004f6 	bl	d8c8 <__aeabi_dmul>
    c4ec:	e28bb001 	add	fp, fp, #1
    c4f0:	e15b000a 	cmp	fp, sl
    c4f4:	e1a06000 	mov	r6, r0
    c4f8:	e1a07001 	mov	r7, r1
    c4fc:	bafffff5 	blt	c4d8 <trigTan+0x118>
    c500:	e1a00004 	mov	r0, r4
    c504:	eb0004b6 	bl	d7e4 <__aeabi_i2d>
    c508:	e28d3010 	add	r3, sp, #16
    c50c:	e893000c 	ldm	r3, {r2, r3}
    c510:	eb000590 	bl	db58 <__aeabi_ddiv>
    c514:	e1a02006 	mov	r2, r6
    c518:	e1a03007 	mov	r3, r7
    c51c:	eb0004e9 	bl	d8c8 <__aeabi_dmul>
    c520:	e1a02000 	mov	r2, r0
    c524:	e1a03001 	mov	r3, r1
    c528:	e28d1008 	add	r1, sp, #8
    c52c:	e8910003 	ldm	r1, {r0, r1}
    c530:	eb0003de 	bl	d4b0 <__adddf3>
    c534:	e28aa002 	add	sl, sl, #2
    c538:	e35a0014 	cmp	sl, #20
    c53c:	e58d0008 	str	r0, [sp, #8]
    c540:	e58d100c 	str	r1, [sp, #12]
    c544:	1affffd5 	bne	c4a0 <trigTan+0xe0>
    c548:	e1a02000 	mov	r2, r0
    c54c:	e1a03001 	mov	r3, r1
    c550:	e89d0003 	ldm	sp, {r0, r1}
    c554:	eb00057f 	bl	db58 <__aeabi_ddiv>
    c558:	e28dd01c 	add	sp, sp, #28
    c55c:	e8bd4ff0 	pop	{r4, r5, r6, r7, r8, r9, sl, fp, lr}
    c560:	e12fff1e 	bx	lr
    c564:	e1a00004 	mov	r0, r4
    c568:	eb00049d 	bl	d7e4 <__aeabi_i2d>
    c56c:	e1a02000 	mov	r2, r0
    c570:	e1a03001 	mov	r3, r1
    c574:	e28d1008 	add	r1, sp, #8
    c578:	e8910003 	ldm	r1, {r0, r1}
    c57c:	eb0003cb 	bl	d4b0 <__adddf3>
    c580:	e3a0a002 	mov	sl, #2
    c584:	e58d0008 	str	r0, [sp, #8]
    c588:	e58d100c 	str	r1, [sp, #12]
    c58c:	eaffffc3 	b	c4a0 <trigTan+0xe0>
    c590:	3ff00000 	svccc	0x00f00000	; IMB

0000c594 <intPow>:
    c594:	e92d41f0 	push	{r4, r5, r6, r7, r8, lr}
    c598:	e2527000 	subs	r7, r2, #0
    c59c:	da00000c 	ble	c5d4 <intPow+0x40>
    c5a0:	e1a04000 	mov	r4, r0
    c5a4:	e3a06000 	mov	r6, #0
    c5a8:	e3a00000 	mov	r0, #0
    c5ac:	e1a05001 	mov	r5, r1
    c5b0:	e59f102c 	ldr	r1, [pc, #44]	; c5e4 <intPow+0x50>
    c5b4:	e1a02004 	mov	r2, r4
    c5b8:	e1a03005 	mov	r3, r5
    c5bc:	e2866001 	add	r6, r6, #1
    c5c0:	eb0004c0 	bl	d8c8 <__aeabi_dmul>
    c5c4:	e1570006 	cmp	r7, r6
    c5c8:	1afffff9 	bne	c5b4 <intPow+0x20>
    c5cc:	e8bd41f0 	pop	{r4, r5, r6, r7, r8, lr}
    c5d0:	e12fff1e 	bx	lr
    c5d4:	e3a00000 	mov	r0, #0
    c5d8:	e59f1004 	ldr	r1, [pc, #4]	; c5e4 <intPow+0x50>
    c5dc:	e8bd41f0 	pop	{r4, r5, r6, r7, r8, lr}
    c5e0:	e12fff1e 	bx	lr
    c5e4:	3ff00000 	svccc	0x00f00000	; IMB

0000c5e8 <pow>:
    c5e8:	e92d47f0 	push	{r4, r5, r6, r7, r8, r9, sl, lr}
    c5ec:	e1a04002 	mov	r4, r2
    c5f0:	e1a05003 	mov	r5, r3
    c5f4:	e1a06000 	mov	r6, r0
    c5f8:	e1a07001 	mov	r7, r1
    c5fc:	e3a02000 	mov	r2, #0
    c600:	e3a03000 	mov	r3, #0
    c604:	e1a00004 	mov	r0, r4
    c608:	e1a01005 	mov	r1, r5
    c60c:	e24dd008 	sub	sp, sp, #8
    c610:	eb00060c 	bl	de48 <__aeabi_dcmplt>
    c614:	e3500000 	cmp	r0, #0
    c618:	1a000035 	bne	c6f4 <pow+0x10c>
    c61c:	e1a00004 	mov	r0, r4
    c620:	e1a01005 	mov	r1, r5
    c624:	ebfffeb1 	bl	c0f0 <ln.part.0>
    c628:	e1a02000 	mov	r2, r0
    c62c:	e1a03001 	mov	r3, r1
    c630:	e1a00006 	mov	r0, r6
    c634:	e1a01007 	mov	r1, r7
    c638:	eb0004a2 	bl	d8c8 <__aeabi_dmul>
    c63c:	e1a04000 	mov	r4, r0
    c640:	e1a05001 	mov	r5, r1
    c644:	e3a02000 	mov	r2, #0
    c648:	e59f30b0 	ldr	r3, [pc, #176]	; c700 <pow+0x118>
    c64c:	e88d0030 	stm	sp, {r4, r5}
    c650:	eb000396 	bl	d4b0 <__adddf3>
    c654:	e1a06004 	mov	r6, r4
    c658:	e1a08000 	mov	r8, r0
    c65c:	e1a09001 	mov	r9, r1
    c660:	e3a04000 	mov	r4, #0
    c664:	e3a0a002 	mov	sl, #2
    c668:	e1a07005 	mov	r7, r5
    c66c:	e59f508c 	ldr	r5, [pc, #140]	; c700 <pow+0x118>
    c670:	e89d000c 	ldm	sp, {r2, r3}
    c674:	e1a00006 	mov	r0, r6
    c678:	e1a01007 	mov	r1, r7
    c67c:	eb000491 	bl	d8c8 <__aeabi_dmul>
    c680:	e1a06000 	mov	r6, r0
    c684:	e1a0000a 	mov	r0, sl
    c688:	e1a07001 	mov	r7, r1
    c68c:	eb000454 	bl	d7e4 <__aeabi_i2d>
    c690:	e1a02000 	mov	r2, r0
    c694:	e1a03001 	mov	r3, r1
    c698:	e1a00004 	mov	r0, r4
    c69c:	e1a01005 	mov	r1, r5
    c6a0:	eb000488 	bl	d8c8 <__aeabi_dmul>
    c6a4:	e1a04000 	mov	r4, r0
    c6a8:	e1a05001 	mov	r5, r1
    c6ac:	e1a02004 	mov	r2, r4
    c6b0:	e1a03005 	mov	r3, r5
    c6b4:	e1a00006 	mov	r0, r6
    c6b8:	e1a01007 	mov	r1, r7
    c6bc:	eb000525 	bl	db58 <__aeabi_ddiv>
    c6c0:	e1a02000 	mov	r2, r0
    c6c4:	e1a03001 	mov	r3, r1
    c6c8:	e1a00008 	mov	r0, r8
    c6cc:	e1a01009 	mov	r1, r9
    c6d0:	eb000376 	bl	d4b0 <__adddf3>
    c6d4:	e28aa001 	add	sl, sl, #1
    c6d8:	e35a000a 	cmp	sl, #10
    c6dc:	e1a08000 	mov	r8, r0
    c6e0:	e1a09001 	mov	r9, r1
    c6e4:	1affffe1 	bne	c670 <pow+0x88>
    c6e8:	e28dd008 	add	sp, sp, #8
    c6ec:	e8bd47f0 	pop	{r4, r5, r6, r7, r8, r9, sl, lr}
    c6f0:	e12fff1e 	bx	lr
    c6f4:	e3a02000 	mov	r2, #0
    c6f8:	e59f3004 	ldr	r3, [pc, #4]	; c704 <pow+0x11c>
    c6fc:	eaffffcb 	b	c630 <pow+0x48>
    c700:	3ff00000 	svccc	0x00f00000	; IMB
    c704:	43dffe00 	bicsmi	pc, pc, #0, 28

0000c708 <exp>:
    c708:	e92d47f0 	push	{r4, r5, r6, r7, r8, r9, sl, lr}
    c70c:	e1a04000 	mov	r4, r0
    c710:	e1a05001 	mov	r5, r1
    c714:	e24dd008 	sub	sp, sp, #8
    c718:	e3a02000 	mov	r2, #0
    c71c:	e59f30a4 	ldr	r3, [pc, #164]	; c7c8 <exp+0xc0>
    c720:	e88d0030 	stm	sp, {r4, r5}
    c724:	eb000361 	bl	d4b0 <__adddf3>
    c728:	e1a06004 	mov	r6, r4
    c72c:	e1a08000 	mov	r8, r0
    c730:	e1a09001 	mov	r9, r1
    c734:	e3a0a002 	mov	sl, #2
    c738:	e3a04000 	mov	r4, #0
    c73c:	e1a07005 	mov	r7, r5
    c740:	e59f5080 	ldr	r5, [pc, #128]	; c7c8 <exp+0xc0>
    c744:	e89d000c 	ldm	sp, {r2, r3}
    c748:	e1a00006 	mov	r0, r6
    c74c:	e1a01007 	mov	r1, r7
    c750:	eb00045c 	bl	d8c8 <__aeabi_dmul>
    c754:	e1a06000 	mov	r6, r0
    c758:	e1a0000a 	mov	r0, sl
    c75c:	e1a07001 	mov	r7, r1
    c760:	eb00041f 	bl	d7e4 <__aeabi_i2d>
    c764:	e1a02000 	mov	r2, r0
    c768:	e1a03001 	mov	r3, r1
    c76c:	e1a00004 	mov	r0, r4
    c770:	e1a01005 	mov	r1, r5
    c774:	eb000453 	bl	d8c8 <__aeabi_dmul>
    c778:	e1a04000 	mov	r4, r0
    c77c:	e1a05001 	mov	r5, r1
    c780:	e1a02004 	mov	r2, r4
    c784:	e1a03005 	mov	r3, r5
    c788:	e1a00006 	mov	r0, r6
    c78c:	e1a01007 	mov	r1, r7
    c790:	eb0004f0 	bl	db58 <__aeabi_ddiv>
    c794:	e1a02000 	mov	r2, r0
    c798:	e1a03001 	mov	r3, r1
    c79c:	e1a00008 	mov	r0, r8
    c7a0:	e1a01009 	mov	r1, r9
    c7a4:	eb000341 	bl	d4b0 <__adddf3>
    c7a8:	e28aa001 	add	sl, sl, #1
    c7ac:	e35a000a 	cmp	sl, #10
    c7b0:	e1a08000 	mov	r8, r0
    c7b4:	e1a09001 	mov	r9, r1
    c7b8:	1affffe1 	bne	c744 <exp+0x3c>
    c7bc:	e28dd008 	add	sp, sp, #8
    c7c0:	e8bd47f0 	pop	{r4, r5, r6, r7, r8, r9, sl, lr}
    c7c4:	e12fff1e 	bx	lr
    c7c8:	3ff00000 	svccc	0x00f00000	; IMB

0000c7cc <ln>:
    c7cc:	e92d4070 	push	{r4, r5, r6, lr}
    c7d0:	e3a02000 	mov	r2, #0
    c7d4:	e3a03000 	mov	r3, #0
    c7d8:	e1a04000 	mov	r4, r0
    c7dc:	e1a05001 	mov	r5, r1
    c7e0:	eb000598 	bl	de48 <__aeabi_dcmplt>
    c7e4:	e3500000 	cmp	r0, #0
    c7e8:	01a00004 	moveq	r0, r4
    c7ec:	01a01005 	moveq	r1, r5
    c7f0:	08bd4070 	popeq	{r4, r5, r6, lr}
    c7f4:	0afffe3d 	beq	c0f0 <ln.part.0>
    c7f8:	e3a00000 	mov	r0, #0
    c7fc:	e59f1004 	ldr	r1, [pc, #4]	; c808 <ln+0x3c>
    c800:	e8bd4070 	pop	{r4, r5, r6, lr}
    c804:	e12fff1e 	bx	lr
    c808:	43dffe00 	bicsmi	pc, pc, #0, 28

0000c80c <factorial>:
    c80c:	e2503000 	subs	r3, r0, #0
    c810:	e3a00001 	mov	r0, #1
    c814:	012fff1e 	bxeq	lr
    c818:	e1a02003 	mov	r2, r3
    c81c:	e2533001 	subs	r3, r3, #1
    c820:	e0000092 	mul	r0, r2, r0
    c824:	1afffffb 	bne	c818 <factorial+0xc>
    c828:	e12fff1e 	bx	lr

0000c82c <getPrecedence>:
    c82c:	e1a03000 	mov	r3, r0
    c830:	e240002b 	sub	r0, r0, #43	; 0x2b
    c834:	e21000fd 	ands	r0, r0, #253	; 0xfd
    c838:	012fff1e 	bxeq	lr
    c83c:	e353002f 	cmp	r3, #47	; 0x2f
    c840:	1353002a 	cmpne	r3, #42	; 0x2a
    c844:	0a000003 	beq	c858 <getPrecedence+0x2c>
    c848:	e353005e 	cmp	r3, #94	; 0x5e
    c84c:	03a00002 	moveq	r0, #2
    c850:	13a0000a 	movne	r0, #10
    c854:	e12fff1e 	bx	lr
    c858:	e3a00001 	mov	r0, #1
    c85c:	e12fff1e 	bx	lr

0000c860 <log>:
    c860:	e92d41f0 	push	{r4, r5, r6, r7, r8, lr}
    c864:	e1a06002 	mov	r6, r2
    c868:	e1a07003 	mov	r7, r3
    c86c:	e1a04000 	mov	r4, r0
    c870:	e1a05001 	mov	r5, r1
    c874:	e3a02000 	mov	r2, #0
    c878:	e3a03000 	mov	r3, #0
    c87c:	e1a00006 	mov	r0, r6
    c880:	e1a01007 	mov	r1, r7
    c884:	eb00056f 	bl	de48 <__aeabi_dcmplt>
    c888:	e3500000 	cmp	r0, #0
    c88c:	1a000015 	bne	c8e8 <log+0x88>
    c890:	e1a00006 	mov	r0, r6
    c894:	e1a01007 	mov	r1, r7
    c898:	ebfffe14 	bl	c0f0 <ln.part.0>
    c89c:	e1a06000 	mov	r6, r0
    c8a0:	e1a07001 	mov	r7, r1
    c8a4:	e3a02000 	mov	r2, #0
    c8a8:	e3a03000 	mov	r3, #0
    c8ac:	e1a00004 	mov	r0, r4
    c8b0:	e1a01005 	mov	r1, r5
    c8b4:	eb000563 	bl	de48 <__aeabi_dcmplt>
    c8b8:	e3500000 	cmp	r0, #0
    c8bc:	1a00000c 	bne	c8f4 <log+0x94>
    c8c0:	e1a00004 	mov	r0, r4
    c8c4:	e1a01005 	mov	r1, r5
    c8c8:	ebfffe08 	bl	c0f0 <ln.part.0>
    c8cc:	e1a02000 	mov	r2, r0
    c8d0:	e1a03001 	mov	r3, r1
    c8d4:	e1a00006 	mov	r0, r6
    c8d8:	e1a01007 	mov	r1, r7
    c8dc:	eb00049d 	bl	db58 <__aeabi_ddiv>
    c8e0:	e8bd41f0 	pop	{r4, r5, r6, r7, r8, lr}
    c8e4:	e12fff1e 	bx	lr
    c8e8:	e3a06000 	mov	r6, #0
    c8ec:	e59f700c 	ldr	r7, [pc, #12]	; c900 <log+0xa0>
    c8f0:	eaffffeb 	b	c8a4 <log+0x44>
    c8f4:	e3a02000 	mov	r2, #0
    c8f8:	e59f3000 	ldr	r3, [pc]	; c900 <log+0xa0>
    c8fc:	eafffff4 	b	c8d4 <log+0x74>
    c900:	43dffe00 	bicsmi	pc, pc, #0, 28

0000c904 <sum>:
    c904:	e92d4070 	push	{r4, r5, r6, lr}
    c908:	e59f4058 	ldr	r4, [pc, #88]	; c968 <sum+0x64>
    c90c:	e7945600 	ldr	r5, [r4, r0, lsl #12]
    c910:	e0844600 	add	r4, r4, r0, lsl #12
    c914:	e3550001 	cmp	r5, #1
    c918:	e3a00000 	mov	r0, #0
    c91c:	e3a01000 	mov	r1, #0
    c920:	e2843008 	add	r3, r4, #8
    c924:	e893000c 	ldm	r3, {r2, r3}
    c928:	1a00000c 	bne	c960 <sum+0x5c>
    c92c:	eb0002df 	bl	d4b0 <__adddf3>
    c930:	e5943010 	ldr	r3, [r4, #16]
    c934:	e2432001 	sub	r2, r3, #1
    c938:	e2723000 	rsbs	r3, r2, #0
    c93c:	e2855001 	add	r5, r5, #1
    c940:	e0a33002 	adc	r3, r3, r2
    c944:	e3550c01 	cmp	r5, #256	; 0x100
    c948:	03a03000 	moveq	r3, #0
    c94c:	e3530000 	cmp	r3, #0
    c950:	e2844010 	add	r4, r4, #16
    c954:	e2843008 	add	r3, r4, #8
    c958:	e893000c 	ldm	r3, {r2, r3}
    c95c:	1afffff2 	bne	c92c <sum+0x28>
    c960:	e8bd4070 	pop	{r4, r5, r6, lr}
    c964:	e12fff1e 	bx	lr
    c968:	0000f6c0 	andeq	pc, r0, r0, asr #13

0000c96c <countList>:
    c96c:	e59fc03c 	ldr	ip, [pc, #60]	; c9b0 <countList+0x44>
    c970:	e79c3600 	ldr	r3, [ip, r0, lsl #12]
    c974:	e3530001 	cmp	r3, #1
    c978:	e08cc600 	add	ip, ip, r0, lsl #12
    c97c:	1a000009 	bne	c9a8 <countList+0x3c>
    c980:	e79c1203 	ldr	r1, [ip, r3, lsl #4]
    c984:	e1a00003 	mov	r0, r3
    c988:	e2833001 	add	r3, r3, #1
    c98c:	e2532c01 	subs	r2, r3, #256	; 0x100
    c990:	13a02001 	movne	r2, #1
    c994:	e3510001 	cmp	r1, #1
    c998:	13a02000 	movne	r2, #0
    c99c:	e3520000 	cmp	r2, #0
    c9a0:	1afffff6 	bne	c980 <countList+0x14>
    c9a4:	e12fff1e 	bx	lr
    c9a8:	e3a00000 	mov	r0, #0
    c9ac:	e12fff1e 	bx	lr
    c9b0:	0000f6c0 	andeq	pc, r0, r0, asr #13

0000c9b4 <mean>:
    c9b4:	e92d47f0 	push	{r4, r5, r6, r7, r8, r9, sl, lr}
    c9b8:	e59f90c0 	ldr	r9, [pc, #192]	; ca80 <mean+0xcc>
    c9bc:	e7994600 	ldr	r4, [r9, r0, lsl #12]
    c9c0:	e0899600 	add	r9, r9, r0, lsl #12
    c9c4:	e3540001 	cmp	r4, #1
    c9c8:	e2893008 	add	r3, r9, #8
    c9cc:	e893000c 	ldm	r3, {r2, r3}
    c9d0:	1a000025 	bne	ca6c <mean+0xb8>
    c9d4:	e1a05009 	mov	r5, r9
    c9d8:	e1a08004 	mov	r8, r4
    c9dc:	e3a06000 	mov	r6, #0
    c9e0:	e3a07000 	mov	r7, #0
    c9e4:	e1a00006 	mov	r0, r6
    c9e8:	e1a01007 	mov	r1, r7
    c9ec:	eb0002af 	bl	d4b0 <__adddf3>
    c9f0:	e5953010 	ldr	r3, [r5, #16]
    c9f4:	e2432001 	sub	r2, r3, #1
    c9f8:	e2723000 	rsbs	r3, r2, #0
    c9fc:	e2888001 	add	r8, r8, #1
    ca00:	e0a33002 	adc	r3, r3, r2
    ca04:	e3580c01 	cmp	r8, #256	; 0x100
    ca08:	03a03000 	moveq	r3, #0
    ca0c:	e3530000 	cmp	r3, #0
    ca10:	e1a06000 	mov	r6, r0
    ca14:	e2853018 	add	r3, r5, #24
    ca18:	e893000c 	ldm	r3, {r2, r3}
    ca1c:	e1a07001 	mov	r7, r1
    ca20:	e2855010 	add	r5, r5, #16
    ca24:	1affffee 	bne	c9e4 <mean+0x30>
    ca28:	e7992204 	ldr	r2, [r9, r4, lsl #4]
    ca2c:	e1a00004 	mov	r0, r4
    ca30:	e2844001 	add	r4, r4, #1
    ca34:	e2543c01 	subs	r3, r4, #256	; 0x100
    ca38:	13a03001 	movne	r3, #1
    ca3c:	e3520001 	cmp	r2, #1
    ca40:	13a03000 	movne	r3, #0
    ca44:	e3530000 	cmp	r3, #0
    ca48:	1afffff6 	bne	ca28 <mean+0x74>
    ca4c:	eb000364 	bl	d7e4 <__aeabi_i2d>
    ca50:	e1a02000 	mov	r2, r0
    ca54:	e1a03001 	mov	r3, r1
    ca58:	e1a00006 	mov	r0, r6
    ca5c:	e1a01007 	mov	r1, r7
    ca60:	eb00043c 	bl	db58 <__aeabi_ddiv>
    ca64:	e8bd47f0 	pop	{r4, r5, r6, r7, r8, r9, sl, lr}
    ca68:	e12fff1e 	bx	lr
    ca6c:	e3a02000 	mov	r2, #0
    ca70:	e3a03000 	mov	r3, #0
    ca74:	e1a06002 	mov	r6, r2
    ca78:	e1a07003 	mov	r7, r3
    ca7c:	eafffff5 	b	ca58 <mean+0xa4>
    ca80:	0000f6c0 	andeq	pc, r0, r0, asr #13

0000ca84 <stdDiv>:
    ca84:	e92d47f0 	push	{r4, r5, r6, r7, r8, r9, sl, lr}
    ca88:	e1a0a000 	mov	sl, r0
    ca8c:	e59f513c 	ldr	r5, [pc, #316]	; cbd0 <stdDiv+0x14c>
    ca90:	ebffffc7 	bl	c9b4 <mean>
    ca94:	e795360a 	ldr	r3, [r5, sl, lsl #12]
    ca98:	e3530001 	cmp	r3, #1
    ca9c:	e085560a 	add	r5, r5, sl, lsl #12
    caa0:	1a000045 	bne	cbbc <stdDiv+0x138>
    caa4:	e1a06000 	mov	r6, r0
    caa8:	e1a07001 	mov	r7, r1
    caac:	e3a04000 	mov	r4, #0
    cab0:	e1a02004 	mov	r2, r4
    cab4:	e2844001 	add	r4, r4, #1
    cab8:	e7953204 	ldr	r3, [r5, r4, lsl #4]
    cabc:	e2431001 	sub	r1, r3, #1
    cac0:	e2713000 	rsbs	r3, r1, #0
    cac4:	e0a33001 	adc	r3, r3, r1
    cac8:	e35200fe 	cmp	r2, #254	; 0xfe
    cacc:	03a03000 	moveq	r3, #0
    cad0:	e3530000 	cmp	r3, #0
    cad4:	1afffff5 	bne	cab0 <stdDiv+0x2c>
    cad8:	e3a08000 	mov	r8, #0
    cadc:	e3a09000 	mov	r9, #0
    cae0:	e082240a 	add	r2, r2, sl, lsl #8
    cae4:	e59fa0e8 	ldr	sl, [pc, #232]	; cbd4 <stdDiv+0x150>
    cae8:	e08aa202 	add	sl, sl, r2, lsl #4
    caec:	e2851008 	add	r1, r5, #8
    caf0:	e8910003 	ldm	r1, {r0, r1}
    caf4:	e1a02006 	mov	r2, r6
    caf8:	e1a03007 	mov	r3, r7
    cafc:	eb00026a 	bl	d4ac <__aeabi_dsub>
    cb00:	e1a02000 	mov	r2, r0
    cb04:	e1a03001 	mov	r3, r1
    cb08:	eb00036e 	bl	d8c8 <__aeabi_dmul>
    cb0c:	e1a02000 	mov	r2, r0
    cb10:	e1a03001 	mov	r3, r1
    cb14:	e1a00008 	mov	r0, r8
    cb18:	e1a01009 	mov	r1, r9
    cb1c:	eb000263 	bl	d4b0 <__adddf3>
    cb20:	e2855010 	add	r5, r5, #16
    cb24:	e15a0005 	cmp	sl, r5
    cb28:	e1a08000 	mov	r8, r0
    cb2c:	e1a09001 	mov	r9, r1
    cb30:	1affffed 	bne	caec <stdDiv+0x68>
    cb34:	e1a00004 	mov	r0, r4
    cb38:	eb000329 	bl	d7e4 <__aeabi_i2d>
    cb3c:	e1a02000 	mov	r2, r0
    cb40:	e1a03001 	mov	r3, r1
    cb44:	e1a00008 	mov	r0, r8
    cb48:	e1a01009 	mov	r1, r9
    cb4c:	eb000401 	bl	db58 <__aeabi_ddiv>
    cb50:	e3a02000 	mov	r2, #0
    cb54:	e59f307c 	ldr	r3, [pc, #124]	; cbd8 <stdDiv+0x154>
    cb58:	e1a06000 	mov	r6, r0
    cb5c:	e1a07001 	mov	r7, r1
    cb60:	eb000358 	bl	d8c8 <__aeabi_dmul>
    cb64:	e3a0a00a 	mov	sl, #10
    cb68:	e1a04000 	mov	r4, r0
    cb6c:	e1a05001 	mov	r5, r1
    cb70:	e3a08000 	mov	r8, #0
    cb74:	e59f905c 	ldr	r9, [pc, #92]	; cbd8 <stdDiv+0x154>
    cb78:	e1a02004 	mov	r2, r4
    cb7c:	e1a03005 	mov	r3, r5
    cb80:	e1a00006 	mov	r0, r6
    cb84:	e1a01007 	mov	r1, r7
    cb88:	eb0003f2 	bl	db58 <__aeabi_ddiv>
    cb8c:	e1a02004 	mov	r2, r4
    cb90:	e1a03005 	mov	r3, r5
    cb94:	eb000245 	bl	d4b0 <__adddf3>
    cb98:	e1a02008 	mov	r2, r8
    cb9c:	e1a03009 	mov	r3, r9
    cba0:	eb000348 	bl	d8c8 <__aeabi_dmul>
    cba4:	e25aa001 	subs	sl, sl, #1
    cba8:	e1a04000 	mov	r4, r0
    cbac:	e1a05001 	mov	r5, r1
    cbb0:	1afffff0 	bne	cb78 <stdDiv+0xf4>
    cbb4:	e8bd47f0 	pop	{r4, r5, r6, r7, r8, r9, sl, lr}
    cbb8:	e12fff1e 	bx	lr
    cbbc:	e3a02000 	mov	r2, #0
    cbc0:	e3a03000 	mov	r3, #0
    cbc4:	e1a08002 	mov	r8, r2
    cbc8:	e1a09003 	mov	r9, r3
    cbcc:	eaffffdc 	b	cb44 <stdDiv+0xc0>
    cbd0:	0000f6c0 	andeq	pc, r0, r0, asr #13
    cbd4:	0000f6d0 	ldrdeq	pc, [r0], -r0
    cbd8:	3fe00000 	svccc	0x00e00000

0000cbdc <sortList>:
    cbdc:	e92d4070 	push	{r4, r5, r6, lr}
    cbe0:	e59f60a0 	ldr	r6, [pc, #160]	; cc88 <sortList+0xac>
    cbe4:	e7963600 	ldr	r3, [r6, r0, lsl #12]
    cbe8:	e3530001 	cmp	r3, #1
    cbec:	e24dd010 	sub	sp, sp, #16
    cbf0:	e0864600 	add	r4, r6, r0, lsl #12
    cbf4:	1a000020 	bne	cc7c <sortList+0xa0>
    cbf8:	e3a03000 	mov	r3, #0
    cbfc:	e1a01003 	mov	r1, r3
    cc00:	e2833001 	add	r3, r3, #1
    cc04:	e7942203 	ldr	r2, [r4, r3, lsl #4]
    cc08:	e242c001 	sub	ip, r2, #1
    cc0c:	e27c2000 	rsbs	r2, ip, #0
    cc10:	e0a2200c 	adc	r2, r2, ip
    cc14:	e35100fe 	cmp	r1, #254	; 0xfe
    cc18:	03a02000 	moveq	r2, #0
    cc1c:	e3520000 	cmp	r2, #0
    cc20:	1afffff5 	bne	cbfc <sortList+0x20>
    cc24:	e3510000 	cmp	r1, #0
    cc28:	0a000013 	beq	cc7c <sortList+0xa0>
    cc2c:	e1a0500d 	mov	r5, sp
    cc30:	e0811400 	add	r1, r1, r0, lsl #8
    cc34:	e0866201 	add	r6, r6, r1, lsl #4
    cc38:	e2843018 	add	r3, r4, #24
    cc3c:	e893000c 	ldm	r3, {r2, r3}
    cc40:	e2841008 	add	r1, r4, #8
    cc44:	e8910003 	ldm	r1, {r0, r1}
    cc48:	eb000490 	bl	de90 <__aeabi_dcmpgt>
    cc4c:	e3500000 	cmp	r0, #0
    cc50:	1894000f 	ldmne	r4, {r0, r1, r2, r3}
    cc54:	1885000f 	stmne	r5, {r0, r1, r2, r3}
    cc58:	1284c010 	addne	ip, r4, #16
    cc5c:	189c000f 	ldmne	ip, {r0, r1, r2, r3}
    cc60:	1884000f 	stmne	r4, {r0, r1, r2, r3}
    cc64:	1895000f 	ldmne	r5, {r0, r1, r2, r3}
    cc68:	0284c010 	addeq	ip, r4, #16
    cc6c:	188c000f 	stmne	ip, {r0, r1, r2, r3}
    cc70:	e15c0006 	cmp	ip, r6
    cc74:	e1a0400c 	mov	r4, ip
    cc78:	1affffee 	bne	cc38 <sortList+0x5c>
    cc7c:	e28dd010 	add	sp, sp, #16
    cc80:	e8bd4070 	pop	{r4, r5, r6, lr}
    cc84:	e12fff1e 	bx	lr
    cc88:	0000f6c0 	andeq	pc, r0, r0, asr #13

0000cc8c <Q1>:
    cc8c:	e92d4070 	push	{r4, r5, r6, lr}
    cc90:	e1a05000 	mov	r5, r0
    cc94:	e59f4090 	ldr	r4, [pc, #144]	; cd2c <Q1+0xa0>
    cc98:	ebffffcf 	bl	cbdc <sortList>
    cc9c:	e7943605 	ldr	r3, [r4, r5, lsl #12]
    cca0:	e3530001 	cmp	r3, #1
    cca4:	e084e605 	add	lr, r4, r5, lsl #12
    cca8:	1a000012 	bne	ccf8 <Q1+0x6c>
    ccac:	e79e1203 	ldr	r1, [lr, r3, lsl #4]
    ccb0:	e1a0c003 	mov	ip, r3
    ccb4:	e2833001 	add	r3, r3, #1
    ccb8:	e2532c01 	subs	r2, r3, #256	; 0x100
    ccbc:	13a02001 	movne	r2, #1
    ccc0:	e3510001 	cmp	r1, #1
    ccc4:	13a02000 	movne	r2, #0
    ccc8:	e3520000 	cmp	r2, #0
    cccc:	1afffff6 	bne	ccac <Q1+0x20>
    ccd0:	e31c0002 	tst	ip, #2
    ccd4:	e1a0c14c 	asr	ip, ip, #2
    ccd8:	0a000007 	beq	ccfc <Q1+0x70>
    ccdc:	e28cc001 	add	ip, ip, #1
    cce0:	e08c3405 	add	r3, ip, r5, lsl #8
    cce4:	e0843203 	add	r3, r4, r3, lsl #4
    cce8:	e2831008 	add	r1, r3, #8
    ccec:	e8910003 	ldm	r1, {r0, r1}
    ccf0:	e8bd4070 	pop	{r4, r5, r6, lr}
    ccf4:	e12fff1e 	bx	lr
    ccf8:	e3a0c000 	mov	ip, #0
    ccfc:	e08cc405 	add	ip, ip, r5, lsl #8
    cd00:	e084c20c 	add	ip, r4, ip, lsl #4
    cd04:	e28c3008 	add	r3, ip, #8
    cd08:	e893000c 	ldm	r3, {r2, r3}
    cd0c:	e1a00002 	mov	r0, r2
    cd10:	e1a01003 	mov	r1, r3
    cd14:	eb0001e5 	bl	d4b0 <__adddf3>
    cd18:	e3a02000 	mov	r2, #0
    cd1c:	e59f300c 	ldr	r3, [pc, #12]	; cd30 <Q1+0xa4>
    cd20:	eb0002e8 	bl	d8c8 <__aeabi_dmul>
    cd24:	e8bd4070 	pop	{r4, r5, r6, lr}
    cd28:	e12fff1e 	bx	lr
    cd2c:	0000f6c0 	andeq	pc, r0, r0, asr #13
    cd30:	3fe00000 	svccc	0x00e00000

0000cd34 <Q3>:
    cd34:	e92d4010 	push	{r4, lr}
    cd38:	e1a04000 	mov	r4, r0
    cd3c:	ebffffa6 	bl	cbdc <sortList>
    cd40:	e59f00a0 	ldr	r0, [pc, #160]	; cde8 <Q3+0xb4>
    cd44:	e7903604 	ldr	r3, [r0, r4, lsl #12]
    cd48:	e3530001 	cmp	r3, #1
    cd4c:	e080e604 	add	lr, r0, r4, lsl #12
    cd50:	1a000014 	bne	cda8 <Q3+0x74>
    cd54:	e79e1203 	ldr	r1, [lr, r3, lsl #4]
    cd58:	e1a0c003 	mov	ip, r3
    cd5c:	e2833001 	add	r3, r3, #1
    cd60:	e2532c01 	subs	r2, r3, #256	; 0x100
    cd64:	13a02001 	movne	r2, #1
    cd68:	e3510001 	cmp	r1, #1
    cd6c:	13a02000 	movne	r2, #0
    cd70:	e3520000 	cmp	r2, #0
    cd74:	1afffff6 	bne	cd54 <Q3+0x20>
    cd78:	e31c0002 	tst	ip, #2
    cd7c:	e1a030cc 	asr	r3, ip, #1
    cd80:	0083c14c 	addeq	ip, r3, ip, asr #2
    cd84:	028c3001 	addeq	r3, ip, #1
    cd88:	0a000008 	beq	cdb0 <Q3+0x7c>
    cd8c:	e0833404 	add	r3, r3, r4, lsl #8
    cd90:	e083c14c 	add	ip, r3, ip, asr #2
    cd94:	e080c20c 	add	ip, r0, ip, lsl #4
    cd98:	e28c1018 	add	r1, ip, #24
    cd9c:	e8910003 	ldm	r1, {r0, r1}
    cda0:	e8bd4010 	pop	{r4, lr}
    cda4:	e12fff1e 	bx	lr
    cda8:	e3a03001 	mov	r3, #1
    cdac:	e3a0c000 	mov	ip, #0
    cdb0:	e0833404 	add	r3, r3, r4, lsl #8
    cdb4:	e08cc404 	add	ip, ip, r4, lsl #8
    cdb8:	e080c20c 	add	ip, r0, ip, lsl #4
    cdbc:	e0800203 	add	r0, r0, r3, lsl #4
    cdc0:	e2803008 	add	r3, r0, #8
    cdc4:	e893000c 	ldm	r3, {r2, r3}
    cdc8:	e28c1008 	add	r1, ip, #8
    cdcc:	e8910003 	ldm	r1, {r0, r1}
    cdd0:	eb0001b6 	bl	d4b0 <__adddf3>
    cdd4:	e3a02000 	mov	r2, #0
    cdd8:	e59f300c 	ldr	r3, [pc, #12]	; cdec <Q3+0xb8>
    cddc:	eb0002b9 	bl	d8c8 <__aeabi_dmul>
    cde0:	e8bd4010 	pop	{r4, lr}
    cde4:	e12fff1e 	bx	lr
    cde8:	0000f6c0 	andeq	pc, r0, r0, asr #13
    cdec:	3fe00000 	svccc	0x00e00000

0000cdf0 <median>:
    cdf0:	e92d4010 	push	{r4, lr}
    cdf4:	e1a04000 	mov	r4, r0
    cdf8:	ebffff77 	bl	cbdc <sortList>
    cdfc:	e59f009c 	ldr	r0, [pc, #156]	; cea0 <median+0xb0>
    ce00:	e7903604 	ldr	r3, [r0, r4, lsl #12]
    ce04:	e3530001 	cmp	r3, #1
    ce08:	e080e604 	add	lr, r0, r4, lsl #12
    ce0c:	1a000013 	bne	ce60 <median+0x70>
    ce10:	e79e1203 	ldr	r1, [lr, r3, lsl #4]
    ce14:	e1a0c003 	mov	ip, r3
    ce18:	e2833001 	add	r3, r3, #1
    ce1c:	e2532c01 	subs	r2, r3, #256	; 0x100
    ce20:	13a02001 	movne	r2, #1
    ce24:	e3510001 	cmp	r1, #1
    ce28:	13a02000 	movne	r2, #0
    ce2c:	e3520000 	cmp	r2, #0
    ce30:	1afffff6 	bne	ce10 <median+0x20>
    ce34:	e31c0001 	tst	ip, #1
    ce38:	e1a0c0cc 	asr	ip, ip, #1
    ce3c:	028c3001 	addeq	r3, ip, #1
    ce40:	0a000008 	beq	ce68 <median+0x78>
    ce44:	e28cc001 	add	ip, ip, #1
    ce48:	e08c3404 	add	r3, ip, r4, lsl #8
    ce4c:	e0803203 	add	r3, r0, r3, lsl #4
    ce50:	e2831008 	add	r1, r3, #8
    ce54:	e8910003 	ldm	r1, {r0, r1}
    ce58:	e8bd4010 	pop	{r4, lr}
    ce5c:	e12fff1e 	bx	lr
    ce60:	e3a03001 	mov	r3, #1
    ce64:	e3a0c000 	mov	ip, #0
    ce68:	e0833404 	add	r3, r3, r4, lsl #8
    ce6c:	e08cc404 	add	ip, ip, r4, lsl #8
    ce70:	e080c20c 	add	ip, r0, ip, lsl #4
    ce74:	e0800203 	add	r0, r0, r3, lsl #4
    ce78:	e2803008 	add	r3, r0, #8
    ce7c:	e893000c 	ldm	r3, {r2, r3}
    ce80:	e28c1008 	add	r1, ip, #8
    ce84:	e8910003 	ldm	r1, {r0, r1}
    ce88:	eb000188 	bl	d4b0 <__adddf3>
    ce8c:	e3a02000 	mov	r2, #0
    ce90:	e59f300c 	ldr	r3, [pc, #12]	; cea4 <median+0xb4>
    ce94:	eb00028b 	bl	d8c8 <__aeabi_dmul>
    ce98:	e8bd4010 	pop	{r4, lr}
    ce9c:	e12fff1e 	bx	lr
    cea0:	0000f6c0 	andeq	pc, r0, r0, asr #13
    cea4:	3fe00000 	svccc	0x00e00000

0000cea8 <linearRegression>:
    cea8:	e1a03000 	mov	r3, r0
    ceac:	e92d4ff0 	push	{r4, r5, r6, r7, r8, r9, sl, fp, lr}
    ceb0:	e1a00001 	mov	r0, r1
    ceb4:	e24dd024 	sub	sp, sp, #36	; 0x24
    ceb8:	e1a0b001 	mov	fp, r1
    cebc:	e1a04002 	mov	r4, r2
    cec0:	e58d301c 	str	r3, [sp, #28]
    cec4:	ebfffeba 	bl	c9b4 <mean>
    cec8:	e1a02000 	mov	r2, r0
    cecc:	e1a03001 	mov	r3, r1
    ced0:	e1a00004 	mov	r0, r4
    ced4:	e58d2008 	str	r2, [sp, #8]
    ced8:	e58d300c 	str	r3, [sp, #12]
    cedc:	ebfffeb4 	bl	c9b4 <mean>
    cee0:	e59fa164 	ldr	sl, [pc, #356]	; d04c <linearRegression+0x1a4>
    cee4:	e79a360b 	ldr	r3, [sl, fp, lsl #12]
    cee8:	e3530001 	cmp	r3, #1
    ceec:	e58d0010 	str	r0, [sp, #16]
    cef0:	e58d1014 	str	r1, [sp, #20]
    cef4:	e3a03000 	mov	r3, #0
    cef8:	e08aa60b 	add	sl, sl, fp, lsl #12
    cefc:	1a00004d 	bne	d038 <linearRegression+0x190>
    cf00:	e1a0140b 	lsl	r1, fp, #8
    cf04:	e1a0b003 	mov	fp, r3
    cf08:	e2833001 	add	r3, r3, #1
    cf0c:	e79a2203 	ldr	r2, [sl, r3, lsl #4]
    cf10:	e2420001 	sub	r0, r2, #1
    cf14:	e2702000 	rsbs	r2, r0, #0
    cf18:	e0a22000 	adc	r2, r2, r0
    cf1c:	e35b00fe 	cmp	fp, #254	; 0xfe
    cf20:	03a02000 	moveq	r2, #0
    cf24:	e3520000 	cmp	r2, #0
    cf28:	1afffff5 	bne	cf04 <linearRegression+0x5c>
    cf2c:	e3a06000 	mov	r6, #0
    cf30:	e3a07000 	mov	r7, #0
    cf34:	e59f3114 	ldr	r3, [pc, #276]	; d050 <linearRegression+0x1a8>
    cf38:	e88d00c0 	stm	sp, {r6, r7}
    cf3c:	e08bb001 	add	fp, fp, r1
    cf40:	e083b20b 	add	fp, r3, fp, lsl #4
    cf44:	e28a9008 	add	r9, sl, #8
    cf48:	e8990300 	ldm	r9, {r8, r9}
    cf4c:	e28d3008 	add	r3, sp, #8
    cf50:	e893000c 	ldm	r3, {r2, r3}
    cf54:	e1a00008 	mov	r0, r8
    cf58:	e1a01009 	mov	r1, r9
    cf5c:	eb000152 	bl	d4ac <__aeabi_dsub>
    cf60:	e1a04000 	mov	r4, r0
    cf64:	e1a05001 	mov	r5, r1
    cf68:	e28d3010 	add	r3, sp, #16
    cf6c:	e893000c 	ldm	r3, {r2, r3}
    cf70:	e1a00008 	mov	r0, r8
    cf74:	e1a01009 	mov	r1, r9
    cf78:	eb00014b 	bl	d4ac <__aeabi_dsub>
    cf7c:	e1a02004 	mov	r2, r4
    cf80:	e1a03005 	mov	r3, r5
    cf84:	eb00024f 	bl	d8c8 <__aeabi_dmul>
    cf88:	e1a02000 	mov	r2, r0
    cf8c:	e1a03001 	mov	r3, r1
    cf90:	e1a00006 	mov	r0, r6
    cf94:	e1a01007 	mov	r1, r7
    cf98:	eb000144 	bl	d4b0 <__adddf3>
    cf9c:	e1a02004 	mov	r2, r4
    cfa0:	e1a03005 	mov	r3, r5
    cfa4:	e1a06000 	mov	r6, r0
    cfa8:	e1a07001 	mov	r7, r1
    cfac:	e1a00004 	mov	r0, r4
    cfb0:	e1a01005 	mov	r1, r5
    cfb4:	eb000243 	bl	d8c8 <__aeabi_dmul>
    cfb8:	e1a02000 	mov	r2, r0
    cfbc:	e1a03001 	mov	r3, r1
    cfc0:	e89d0003 	ldm	sp, {r0, r1}
    cfc4:	eb000139 	bl	d4b0 <__adddf3>
    cfc8:	e28aa010 	add	sl, sl, #16
    cfcc:	e15b000a 	cmp	fp, sl
    cfd0:	e88d0003 	stm	sp, {r0, r1}
    cfd4:	1affffda 	bne	cf44 <linearRegression+0x9c>
    cfd8:	e89d000c 	ldm	sp, {r2, r3}
    cfdc:	e1a00006 	mov	r0, r6
    cfe0:	e1a01007 	mov	r1, r7
    cfe4:	eb0002db 	bl	db58 <__aeabi_ddiv>
    cfe8:	e1a02000 	mov	r2, r0
    cfec:	e1a03001 	mov	r3, r1
    cff0:	e59d401c 	ldr	r4, [sp, #28]
    cff4:	e28d1008 	add	r1, sp, #8
    cff8:	e8910003 	ldm	r1, {r0, r1}
    cffc:	e884000c 	stm	r4, {r2, r3}
    d000:	eb000230 	bl	d8c8 <__aeabi_dmul>
    d004:	e1a02000 	mov	r2, r0
    d008:	e1a03001 	mov	r3, r1
    d00c:	e28d1010 	add	r1, sp, #16
    d010:	e8910003 	ldm	r1, {r0, r1}
    d014:	eb000124 	bl	d4ac <__aeabi_dsub>
    d018:	e1a02000 	mov	r2, r0
    d01c:	e1a03001 	mov	r3, r1
    d020:	e1a00004 	mov	r0, r4
    d024:	e5842008 	str	r2, [r4, #8]
    d028:	e584300c 	str	r3, [r4, #12]
    d02c:	e28dd024 	add	sp, sp, #36	; 0x24
    d030:	e8bd4ff0 	pop	{r4, r5, r6, r7, r8, r9, sl, fp, lr}
    d034:	e12fff1e 	bx	lr
    d038:	e3a04000 	mov	r4, #0
    d03c:	e1a06003 	mov	r6, r3
    d040:	e1a07004 	mov	r7, r4
    d044:	e88d0018 	stm	sp, {r3, r4}
    d048:	eaffffe2 	b	cfd8 <linearRegression+0x130>
    d04c:	0000f6c0 	andeq	pc, r0, r0, asr #13
    d050:	0000f6d0 	ldrdeq	pc, [r0], -r0

0000d054 <sqrt>:
    d054:	e92d47f0 	push	{r4, r5, r6, r7, r8, r9, sl, lr}
    d058:	e3a02000 	mov	r2, #0
    d05c:	e59f3060 	ldr	r3, [pc, #96]	; d0c4 <sqrt+0x70>
    d060:	e1a06000 	mov	r6, r0
    d064:	e1a07001 	mov	r7, r1
    d068:	eb000216 	bl	d8c8 <__aeabi_dmul>
    d06c:	e3a0a00a 	mov	sl, #10
    d070:	e1a04000 	mov	r4, r0
    d074:	e1a05001 	mov	r5, r1
    d078:	e3a08000 	mov	r8, #0
    d07c:	e59f9040 	ldr	r9, [pc, #64]	; d0c4 <sqrt+0x70>
    d080:	e1a02004 	mov	r2, r4
    d084:	e1a03005 	mov	r3, r5
    d088:	e1a00006 	mov	r0, r6
    d08c:	e1a01007 	mov	r1, r7
    d090:	eb0002b0 	bl	db58 <__aeabi_ddiv>
    d094:	e1a02004 	mov	r2, r4
    d098:	e1a03005 	mov	r3, r5
    d09c:	eb000103 	bl	d4b0 <__adddf3>
    d0a0:	e1a02008 	mov	r2, r8
    d0a4:	e1a03009 	mov	r3, r9
    d0a8:	eb000206 	bl	d8c8 <__aeabi_dmul>
    d0ac:	e25aa001 	subs	sl, sl, #1
    d0b0:	e1a04000 	mov	r4, r0
    d0b4:	e1a05001 	mov	r5, r1
    d0b8:	1afffff0 	bne	d080 <sqrt+0x2c>
    d0bc:	e8bd47f0 	pop	{r4, r5, r6, r7, r8, r9, sl, lr}
    d0c0:	e12fff1e 	bx	lr
    d0c4:	3fe00000 	svccc	0x00e00000
    d0c8:	e92d4070 	push	{r4, r5, r6, lr}
    d0cc:	e3a0c0ff 	mov	ip, #255	; 0xff
    d0d0:	e38ccc07 	orr	ip, ip, #1792	; 0x700
    d0d4:	e01c4a21 	ands	r4, ip, r1, lsr #20
    d0d8:	101c5a23 	andsne	r5, ip, r3, lsr #20
    d0dc:	1134000c 	teqne	r4, ip
    d0e0:	1135000c 	teqne	r5, ip
    d0e4:	0b000075 	bleq	d2c0 <sqrt+0x26c>
    d0e8:	e0844005 	add	r4, r4, r5
    d0ec:	e0216003 	eor	r6, r1, r3
    d0f0:	e1c11a8c 	bic	r1, r1, ip, lsl #21
    d0f4:	e1c33a8c 	bic	r3, r3, ip, lsl #21
    d0f8:	e1905601 	orrs	r5, r0, r1, lsl #12
    d0fc:	11925603 	orrsne	r5, r2, r3, lsl #12
    d100:	e3811601 	orr	r1, r1, #1048576	; 0x100000
    d104:	e3833601 	orr	r3, r3, #1048576	; 0x100000
    d108:	0a00001d 	beq	d184 <sqrt+0x130>
    d10c:	e08ec290 	umull	ip, lr, r0, r2
    d110:	e3a05000 	mov	r5, #0
    d114:	e0a5e291 	umlal	lr, r5, r1, r2
    d118:	e2062102 	and	r2, r6, #-2147483648	; 0x80000000
    d11c:	e0a5e390 	umlal	lr, r5, r0, r3
    d120:	e3a06000 	mov	r6, #0
    d124:	e0a65391 	umlal	r5, r6, r1, r3
    d128:	e33c0000 	teq	ip, #0
    d12c:	138ee001 	orrne	lr, lr, #1
    d130:	e24440ff 	sub	r4, r4, #255	; 0xff
    d134:	e3560c02 	cmp	r6, #512	; 0x200
    d138:	e2c44c03 	sbc	r4, r4, #768	; 0x300
    d13c:	2a000002 	bcs	d14c <sqrt+0xf8>
    d140:	e1b0e08e 	lsls	lr, lr, #1
    d144:	e0b55005 	adcs	r5, r5, r5
    d148:	e0a66006 	adc	r6, r6, r6
    d14c:	e1821586 	orr	r1, r2, r6, lsl #11
    d150:	e1811aa5 	orr	r1, r1, r5, lsr #21
    d154:	e1a00585 	lsl	r0, r5, #11
    d158:	e1800aae 	orr	r0, r0, lr, lsr #21
    d15c:	e1a0e58e 	lsl	lr, lr, #11
    d160:	e254c0fd 	subs	ip, r4, #253	; 0xfd
    d164:	835c0c07 	cmphi	ip, #1792	; 0x700
    d168:	8a000011 	bhi	d1b4 <sqrt+0x160>
    d16c:	e35e0102 	cmp	lr, #-2147483648	; 0x80000000
    d170:	01b0e0a0 	lsrseq	lr, r0, #1
    d174:	e2b00000 	adcs	r0, r0, #0
    d178:	e0a11a04 	adc	r1, r1, r4, lsl #20
    d17c:	e8bd4070 	pop	{r4, r5, r6, lr}
    d180:	e12fff1e 	bx	lr
    d184:	e2066102 	and	r6, r6, #-2147483648	; 0x80000000
    d188:	e1861001 	orr	r1, r6, r1
    d18c:	e1800002 	orr	r0, r0, r2
    d190:	e0211003 	eor	r1, r1, r3
    d194:	e05440ac 	subs	r4, r4, ip, lsr #1
    d198:	c074500c 	rsbsgt	r5, r4, ip
    d19c:	c1811a04 	orrgt	r1, r1, r4, lsl #20
    d1a0:	c8bd4070 	popgt	{r4, r5, r6, lr}
    d1a4:	c12fff1e 	bxgt	lr
    d1a8:	e3811601 	orr	r1, r1, #1048576	; 0x100000
    d1ac:	e3a0e000 	mov	lr, #0
    d1b0:	e2544001 	subs	r4, r4, #1
    d1b4:	ca00005d 	bgt	d330 <sqrt+0x2dc>
    d1b8:	e3740036 	cmn	r4, #54	; 0x36
    d1bc:	d3a00000 	movle	r0, #0
    d1c0:	d2011102 	andle	r1, r1, #-2147483648	; 0x80000000
    d1c4:	d8bd4070 	pople	{r4, r5, r6, lr}
    d1c8:	d12fff1e 	bxle	lr
    d1cc:	e2644000 	rsb	r4, r4, #0
    d1d0:	e2544020 	subs	r4, r4, #32
    d1d4:	aa00001a 	bge	d244 <sqrt+0x1f0>
    d1d8:	e294400c 	adds	r4, r4, #12
    d1dc:	ca00000c 	bgt	d214 <sqrt+0x1c0>
    d1e0:	e2844014 	add	r4, r4, #20
    d1e4:	e2645020 	rsb	r5, r4, #32
    d1e8:	e1a03510 	lsl	r3, r0, r5
    d1ec:	e1a00430 	lsr	r0, r0, r4
    d1f0:	e1800511 	orr	r0, r0, r1, lsl r5
    d1f4:	e2012102 	and	r2, r1, #-2147483648	; 0x80000000
    d1f8:	e3c11102 	bic	r1, r1, #-2147483648	; 0x80000000
    d1fc:	e0900fa3 	adds	r0, r0, r3, lsr #31
    d200:	e0a21431 	adc	r1, r2, r1, lsr r4
    d204:	e19ee083 	orrs	lr, lr, r3, lsl #1
    d208:	01c00fa3 	biceq	r0, r0, r3, lsr #31
    d20c:	e8bd4070 	pop	{r4, r5, r6, lr}
    d210:	e12fff1e 	bx	lr
    d214:	e264400c 	rsb	r4, r4, #12
    d218:	e2645020 	rsb	r5, r4, #32
    d21c:	e1a03410 	lsl	r3, r0, r4
    d220:	e1a00530 	lsr	r0, r0, r5
    d224:	e1800411 	orr	r0, r0, r1, lsl r4
    d228:	e2011102 	and	r1, r1, #-2147483648	; 0x80000000
    d22c:	e0900fa3 	adds	r0, r0, r3, lsr #31
    d230:	e2a11000 	adc	r1, r1, #0
    d234:	e19ee083 	orrs	lr, lr, r3, lsl #1
    d238:	01c00fa3 	biceq	r0, r0, r3, lsr #31
    d23c:	e8bd4070 	pop	{r4, r5, r6, lr}
    d240:	e12fff1e 	bx	lr
    d244:	e2645020 	rsb	r5, r4, #32
    d248:	e18ee510 	orr	lr, lr, r0, lsl r5
    d24c:	e1a03430 	lsr	r3, r0, r4
    d250:	e1833511 	orr	r3, r3, r1, lsl r5
    d254:	e1a00431 	lsr	r0, r1, r4
    d258:	e2011102 	and	r1, r1, #-2147483648	; 0x80000000
    d25c:	e1c00431 	bic	r0, r0, r1, lsr r4
    d260:	e0800fa3 	add	r0, r0, r3, lsr #31
    d264:	e19ee083 	orrs	lr, lr, r3, lsl #1
    d268:	01c00fa3 	biceq	r0, r0, r3, lsr #31
    d26c:	e8bd4070 	pop	{r4, r5, r6, lr}
    d270:	e12fff1e 	bx	lr
    d274:	e3340000 	teq	r4, #0
    d278:	1a000008 	bne	d2a0 <sqrt+0x24c>
    d27c:	e2016102 	and	r6, r1, #-2147483648	; 0x80000000
    d280:	e1b00080 	lsls	r0, r0, #1
    d284:	e0a11001 	adc	r1, r1, r1
    d288:	e3110601 	tst	r1, #1048576	; 0x100000
    d28c:	02444001 	subeq	r4, r4, #1
    d290:	0afffffa 	beq	d280 <sqrt+0x22c>
    d294:	e1811006 	orr	r1, r1, r6
    d298:	e3350000 	teq	r5, #0
    d29c:	112fff1e 	bxne	lr
    d2a0:	e2036102 	and	r6, r3, #-2147483648	; 0x80000000
    d2a4:	e1b02082 	lsls	r2, r2, #1
    d2a8:	e0a33003 	adc	r3, r3, r3
    d2ac:	e3130601 	tst	r3, #1048576	; 0x100000
    d2b0:	02455001 	subeq	r5, r5, #1
    d2b4:	0afffffa 	beq	d2a4 <sqrt+0x250>
    d2b8:	e1833006 	orr	r3, r3, r6
    d2bc:	e12fff1e 	bx	lr
    d2c0:	e134000c 	teq	r4, ip
    d2c4:	e00c5a23 	and	r5, ip, r3, lsr #20
    d2c8:	1135000c 	teqne	r5, ip
    d2cc:	0a000007 	beq	d2f0 <sqrt+0x29c>
    d2d0:	e1906081 	orrs	r6, r0, r1, lsl #1
    d2d4:	11926083 	orrsne	r6, r2, r3, lsl #1
    d2d8:	1affffe5 	bne	d274 <sqrt+0x220>
    d2dc:	e0211003 	eor	r1, r1, r3
    d2e0:	e2011102 	and	r1, r1, #-2147483648	; 0x80000000
    d2e4:	e3a00000 	mov	r0, #0
    d2e8:	e8bd4070 	pop	{r4, r5, r6, lr}
    d2ec:	e12fff1e 	bx	lr
    d2f0:	e1906081 	orrs	r6, r0, r1, lsl #1
    d2f4:	01a00002 	moveq	r0, r2
    d2f8:	01a01003 	moveq	r1, r3
    d2fc:	11926083 	orrsne	r6, r2, r3, lsl #1
    d300:	0a000010 	beq	d348 <sqrt+0x2f4>
    d304:	e134000c 	teq	r4, ip
    d308:	1a000001 	bne	d314 <sqrt+0x2c0>
    d30c:	e1906601 	orrs	r6, r0, r1, lsl #12
    d310:	1a00000c 	bne	d348 <sqrt+0x2f4>
    d314:	e135000c 	teq	r5, ip
    d318:	1a000003 	bne	d32c <sqrt+0x2d8>
    d31c:	e1926603 	orrs	r6, r2, r3, lsl #12
    d320:	11a00002 	movne	r0, r2
    d324:	11a01003 	movne	r1, r3
    d328:	1a000006 	bne	d348 <sqrt+0x2f4>
    d32c:	e0211003 	eor	r1, r1, r3
    d330:	e2011102 	and	r1, r1, #-2147483648	; 0x80000000
    d334:	e381147f 	orr	r1, r1, #2130706432	; 0x7f000000
    d338:	e381160f 	orr	r1, r1, #15728640	; 0xf00000
    d33c:	e3a00000 	mov	r0, #0
    d340:	e8bd4070 	pop	{r4, r5, r6, lr}
    d344:	e12fff1e 	bx	lr
    d348:	e381147f 	orr	r1, r1, #2130706432	; 0x7f000000
    d34c:	e381173e 	orr	r1, r1, #16252928	; 0xf80000
    d350:	e8bd4070 	pop	{r4, r5, r6, lr}
    d354:	e12fff1e 	bx	lr

0000d358 <__divsi3>:
    d358:	e3510000 	cmp	r1, #0
    d35c:	0a000043 	beq	d470 <.divsi3_skip_div0_test+0x110>

0000d360 <.divsi3_skip_div0_test>:
    d360:	e020c001 	eor	ip, r0, r1
    d364:	42611000 	rsbmi	r1, r1, #0
    d368:	e2512001 	subs	r2, r1, #1
    d36c:	0a000027 	beq	d410 <.divsi3_skip_div0_test+0xb0>
    d370:	e1b03000 	movs	r3, r0
    d374:	42603000 	rsbmi	r3, r0, #0
    d378:	e1530001 	cmp	r3, r1
    d37c:	9a000026 	bls	d41c <.divsi3_skip_div0_test+0xbc>
    d380:	e1110002 	tst	r1, r2
    d384:	0a000028 	beq	d42c <.divsi3_skip_div0_test+0xcc>
    d388:	e311020e 	tst	r1, #-536870912	; 0xe0000000
    d38c:	01a01181 	lsleq	r1, r1, #3
    d390:	03a02008 	moveq	r2, #8
    d394:	13a02001 	movne	r2, #1
    d398:	e3510201 	cmp	r1, #268435456	; 0x10000000
    d39c:	31510003 	cmpcc	r1, r3
    d3a0:	31a01201 	lslcc	r1, r1, #4
    d3a4:	31a02202 	lslcc	r2, r2, #4
    d3a8:	3afffffa 	bcc	d398 <.divsi3_skip_div0_test+0x38>
    d3ac:	e3510102 	cmp	r1, #-2147483648	; 0x80000000
    d3b0:	31510003 	cmpcc	r1, r3
    d3b4:	31a01081 	lslcc	r1, r1, #1
    d3b8:	31a02082 	lslcc	r2, r2, #1
    d3bc:	3afffffa 	bcc	d3ac <.divsi3_skip_div0_test+0x4c>
    d3c0:	e3a00000 	mov	r0, #0
    d3c4:	e1530001 	cmp	r3, r1
    d3c8:	20433001 	subcs	r3, r3, r1
    d3cc:	21800002 	orrcs	r0, r0, r2
    d3d0:	e15300a1 	cmp	r3, r1, lsr #1
    d3d4:	204330a1 	subcs	r3, r3, r1, lsr #1
    d3d8:	218000a2 	orrcs	r0, r0, r2, lsr #1
    d3dc:	e1530121 	cmp	r3, r1, lsr #2
    d3e0:	20433121 	subcs	r3, r3, r1, lsr #2
    d3e4:	21800122 	orrcs	r0, r0, r2, lsr #2
    d3e8:	e15301a1 	cmp	r3, r1, lsr #3
    d3ec:	204331a1 	subcs	r3, r3, r1, lsr #3
    d3f0:	218001a2 	orrcs	r0, r0, r2, lsr #3
    d3f4:	e3530000 	cmp	r3, #0
    d3f8:	11b02222 	lsrsne	r2, r2, #4
    d3fc:	11a01221 	lsrne	r1, r1, #4
    d400:	1affffef 	bne	d3c4 <.divsi3_skip_div0_test+0x64>
    d404:	e35c0000 	cmp	ip, #0
    d408:	42600000 	rsbmi	r0, r0, #0
    d40c:	e12fff1e 	bx	lr
    d410:	e13c0000 	teq	ip, r0
    d414:	42600000 	rsbmi	r0, r0, #0
    d418:	e12fff1e 	bx	lr
    d41c:	33a00000 	movcc	r0, #0
    d420:	01a00fcc 	asreq	r0, ip, #31
    d424:	03800001 	orreq	r0, r0, #1
    d428:	e12fff1e 	bx	lr
    d42c:	e3510801 	cmp	r1, #65536	; 0x10000
    d430:	21a01821 	lsrcs	r1, r1, #16
    d434:	23a02010 	movcs	r2, #16
    d438:	33a02000 	movcc	r2, #0
    d43c:	e3510c01 	cmp	r1, #256	; 0x100
    d440:	21a01421 	lsrcs	r1, r1, #8
    d444:	22822008 	addcs	r2, r2, #8
    d448:	e3510010 	cmp	r1, #16
    d44c:	21a01221 	lsrcs	r1, r1, #4
    d450:	22822004 	addcs	r2, r2, #4
    d454:	e3510004 	cmp	r1, #4
    d458:	82822003 	addhi	r2, r2, #3
    d45c:	908220a1 	addls	r2, r2, r1, lsr #1
    d460:	e35c0000 	cmp	ip, #0
    d464:	e1a00233 	lsr	r0, r3, r2
    d468:	42600000 	rsbmi	r0, r0, #0
    d46c:	e12fff1e 	bx	lr
    d470:	e3500000 	cmp	r0, #0
    d474:	c3e00102 	mvngt	r0, #-2147483648	; 0x80000000
    d478:	b3a00102 	movlt	r0, #-2147483648	; 0x80000000
    d47c:	ea000007 	b	d4a0 <__aeabi_idiv0>

0000d480 <__aeabi_idivmod>:
    d480:	e3510000 	cmp	r1, #0
    d484:	0afffff9 	beq	d470 <.divsi3_skip_div0_test+0x110>
    d488:	e92d4003 	push	{r0, r1, lr}
    d48c:	ebffffb3 	bl	d360 <.divsi3_skip_div0_test>
    d490:	e8bd4006 	pop	{r1, r2, lr}
    d494:	e0030092 	mul	r3, r2, r0
    d498:	e0411003 	sub	r1, r1, r3
    d49c:	e12fff1e 	bx	lr

0000d4a0 <__aeabi_idiv0>:
    d4a0:	e12fff1e 	bx	lr

0000d4a4 <__aeabi_drsub>:
    d4a4:	e2211102 	eor	r1, r1, #-2147483648	; 0x80000000
    d4a8:	ea000000 	b	d4b0 <__adddf3>

0000d4ac <__aeabi_dsub>:
    d4ac:	e2233102 	eor	r3, r3, #-2147483648	; 0x80000000

0000d4b0 <__adddf3>:
    d4b0:	e92d4030 	push	{r4, r5, lr}
    d4b4:	e1a04081 	lsl	r4, r1, #1
    d4b8:	e1a05083 	lsl	r5, r3, #1
    d4bc:	e1340005 	teq	r4, r5
    d4c0:	01300002 	teqeq	r0, r2
    d4c4:	1194c000 	orrsne	ip, r4, r0
    d4c8:	1195c002 	orrsne	ip, r5, r2
    d4cc:	11f0cac4 	mvnsne	ip, r4, asr #21
    d4d0:	11f0cac5 	mvnsne	ip, r5, asr #21
    d4d4:	0a00008c 	beq	d70c <__adddf3+0x25c>
    d4d8:	e1a04aa4 	lsr	r4, r4, #21
    d4dc:	e0745aa5 	rsbs	r5, r4, r5, lsr #21
    d4e0:	b2655000 	rsblt	r5, r5, #0
    d4e4:	da000006 	ble	d504 <__adddf3+0x54>
    d4e8:	e0844005 	add	r4, r4, r5
    d4ec:	e0202002 	eor	r2, r0, r2
    d4f0:	e0213003 	eor	r3, r1, r3
    d4f4:	e0220000 	eor	r0, r2, r0
    d4f8:	e0231001 	eor	r1, r3, r1
    d4fc:	e0202002 	eor	r2, r0, r2
    d500:	e0213003 	eor	r3, r1, r3
    d504:	e3550036 	cmp	r5, #54	; 0x36
    d508:	88bd4030 	pophi	{r4, r5, lr}
    d50c:	812fff1e 	bxhi	lr
    d510:	e3110102 	tst	r1, #-2147483648	; 0x80000000
    d514:	e1a01601 	lsl	r1, r1, #12
    d518:	e3a0c601 	mov	ip, #1048576	; 0x100000
    d51c:	e18c1621 	orr	r1, ip, r1, lsr #12
    d520:	0a000001 	beq	d52c <__adddf3+0x7c>
    d524:	e2700000 	rsbs	r0, r0, #0
    d528:	e2e11000 	rsc	r1, r1, #0
    d52c:	e3130102 	tst	r3, #-2147483648	; 0x80000000
    d530:	e1a03603 	lsl	r3, r3, #12
    d534:	e18c3623 	orr	r3, ip, r3, lsr #12
    d538:	0a000001 	beq	d544 <__adddf3+0x94>
    d53c:	e2722000 	rsbs	r2, r2, #0
    d540:	e2e33000 	rsc	r3, r3, #0
    d544:	e1340005 	teq	r4, r5
    d548:	0a000069 	beq	d6f4 <__adddf3+0x244>
    d54c:	e2444001 	sub	r4, r4, #1
    d550:	e275e020 	rsbs	lr, r5, #32
    d554:	ba000005 	blt	d570 <__adddf3+0xc0>
    d558:	e1a0ce12 	lsl	ip, r2, lr
    d55c:	e0900532 	adds	r0, r0, r2, lsr r5
    d560:	e2a11000 	adc	r1, r1, #0
    d564:	e0900e13 	adds	r0, r0, r3, lsl lr
    d568:	e0b11553 	adcs	r1, r1, r3, asr r5
    d56c:	ea000006 	b	d58c <__adddf3+0xdc>
    d570:	e2455020 	sub	r5, r5, #32
    d574:	e28ee020 	add	lr, lr, #32
    d578:	e3520001 	cmp	r2, #1
    d57c:	e1a0ce13 	lsl	ip, r3, lr
    d580:	238cc002 	orrcs	ip, ip, #2
    d584:	e0900553 	adds	r0, r0, r3, asr r5
    d588:	e0b11fc3 	adcs	r1, r1, r3, asr #31
    d58c:	e2015102 	and	r5, r1, #-2147483648	; 0x80000000
    d590:	5a000002 	bpl	d5a0 <__adddf3+0xf0>
    d594:	e27cc000 	rsbs	ip, ip, #0
    d598:	e2f00000 	rscs	r0, r0, #0
    d59c:	e2e11000 	rsc	r1, r1, #0
    d5a0:	e3510601 	cmp	r1, #1048576	; 0x100000
    d5a4:	3a00000f 	bcc	d5e8 <__adddf3+0x138>
    d5a8:	e3510602 	cmp	r1, #2097152	; 0x200000
    d5ac:	3a000006 	bcc	d5cc <__adddf3+0x11c>
    d5b0:	e1b010a1 	lsrs	r1, r1, #1
    d5b4:	e1b00060 	rrxs	r0, r0
    d5b8:	e1a0c06c 	rrx	ip, ip
    d5bc:	e2844001 	add	r4, r4, #1
    d5c0:	e1a02a84 	lsl	r2, r4, #21
    d5c4:	e3720501 	cmn	r2, #4194304	; 0x400000
    d5c8:	2a00006b 	bcs	d77c <__adddf3+0x2cc>
    d5cc:	e35c0102 	cmp	ip, #-2147483648	; 0x80000000
    d5d0:	01b0c0a0 	lsrseq	ip, r0, #1
    d5d4:	e2b00000 	adcs	r0, r0, #0
    d5d8:	e0a11a04 	adc	r1, r1, r4, lsl #20
    d5dc:	e1811005 	orr	r1, r1, r5
    d5e0:	e8bd4030 	pop	{r4, r5, lr}
    d5e4:	e12fff1e 	bx	lr
    d5e8:	e1b0c08c 	lsls	ip, ip, #1
    d5ec:	e0b00000 	adcs	r0, r0, r0
    d5f0:	e0a11001 	adc	r1, r1, r1
    d5f4:	e2544001 	subs	r4, r4, #1
    d5f8:	23510601 	cmpcs	r1, #1048576	; 0x100000
    d5fc:	2afffff2 	bcs	d5cc <__adddf3+0x11c>
    d600:	e3310000 	teq	r1, #0
    d604:	13a03014 	movne	r3, #20
    d608:	03a03034 	moveq	r3, #52	; 0x34
    d60c:	01a01000 	moveq	r1, r0
    d610:	03a00000 	moveq	r0, #0
    d614:	e1a02001 	mov	r2, r1
    d618:	e3520801 	cmp	r2, #65536	; 0x10000
    d61c:	21a02822 	lsrcs	r2, r2, #16
    d620:	22433010 	subcs	r3, r3, #16
    d624:	e3520c01 	cmp	r2, #256	; 0x100
    d628:	21a02422 	lsrcs	r2, r2, #8
    d62c:	22433008 	subcs	r3, r3, #8
    d630:	e3520010 	cmp	r2, #16
    d634:	21a02222 	lsrcs	r2, r2, #4
    d638:	22433004 	subcs	r3, r3, #4
    d63c:	e3520004 	cmp	r2, #4
    d640:	22433002 	subcs	r3, r3, #2
    d644:	304330a2 	subcc	r3, r3, r2, lsr #1
    d648:	e04331a2 	sub	r3, r3, r2, lsr #3
    d64c:	e2532020 	subs	r2, r3, #32
    d650:	aa000007 	bge	d674 <__adddf3+0x1c4>
    d654:	e292200c 	adds	r2, r2, #12
    d658:	da000004 	ble	d670 <__adddf3+0x1c0>
    d65c:	e282c014 	add	ip, r2, #20
    d660:	e262200c 	rsb	r2, r2, #12
    d664:	e1a00c11 	lsl	r0, r1, ip
    d668:	e1a01231 	lsr	r1, r1, r2
    d66c:	ea000004 	b	d684 <__adddf3+0x1d4>
    d670:	e2822014 	add	r2, r2, #20
    d674:	d262c020 	rsble	ip, r2, #32
    d678:	e1a01211 	lsl	r1, r1, r2
    d67c:	d1811c30 	orrle	r1, r1, r0, lsr ip
    d680:	d1a00210 	lslle	r0, r0, r2
    d684:	e0544003 	subs	r4, r4, r3
    d688:	a0811a04 	addge	r1, r1, r4, lsl #20
    d68c:	a1811005 	orrge	r1, r1, r5
    d690:	a8bd4030 	popge	{r4, r5, lr}
    d694:	a12fff1e 	bxge	lr
    d698:	e1e04004 	mvn	r4, r4
    d69c:	e254401f 	subs	r4, r4, #31
    d6a0:	aa00000f 	bge	d6e4 <__adddf3+0x234>
    d6a4:	e294400c 	adds	r4, r4, #12
    d6a8:	ca000006 	bgt	d6c8 <__adddf3+0x218>
    d6ac:	e2844014 	add	r4, r4, #20
    d6b0:	e2642020 	rsb	r2, r4, #32
    d6b4:	e1a00430 	lsr	r0, r0, r4
    d6b8:	e1800211 	orr	r0, r0, r1, lsl r2
    d6bc:	e1851431 	orr	r1, r5, r1, lsr r4
    d6c0:	e8bd4030 	pop	{r4, r5, lr}
    d6c4:	e12fff1e 	bx	lr
    d6c8:	e264400c 	rsb	r4, r4, #12
    d6cc:	e2642020 	rsb	r2, r4, #32
    d6d0:	e1a00230 	lsr	r0, r0, r2
    d6d4:	e1800411 	orr	r0, r0, r1, lsl r4
    d6d8:	e1a01005 	mov	r1, r5
    d6dc:	e8bd4030 	pop	{r4, r5, lr}
    d6e0:	e12fff1e 	bx	lr
    d6e4:	e1a00431 	lsr	r0, r1, r4
    d6e8:	e1a01005 	mov	r1, r5
    d6ec:	e8bd4030 	pop	{r4, r5, lr}
    d6f0:	e12fff1e 	bx	lr
    d6f4:	e3340000 	teq	r4, #0
    d6f8:	e2233601 	eor	r3, r3, #1048576	; 0x100000
    d6fc:	02211601 	eoreq	r1, r1, #1048576	; 0x100000
    d700:	02844001 	addeq	r4, r4, #1
    d704:	12455001 	subne	r5, r5, #1
    d708:	eaffff8f 	b	d54c <__adddf3+0x9c>
    d70c:	e1f0cac4 	mvns	ip, r4, asr #21
    d710:	11f0cac5 	mvnsne	ip, r5, asr #21
    d714:	0a00001d 	beq	d790 <__adddf3+0x2e0>
    d718:	e1340005 	teq	r4, r5
    d71c:	01300002 	teqeq	r0, r2
    d720:	0a000004 	beq	d738 <__adddf3+0x288>
    d724:	e194c000 	orrs	ip, r4, r0
    d728:	01a01003 	moveq	r1, r3
    d72c:	01a00002 	moveq	r0, r2
    d730:	e8bd4030 	pop	{r4, r5, lr}
    d734:	e12fff1e 	bx	lr
    d738:	e1310003 	teq	r1, r3
    d73c:	13a01000 	movne	r1, #0
    d740:	13a00000 	movne	r0, #0
    d744:	18bd4030 	popne	{r4, r5, lr}
    d748:	112fff1e 	bxne	lr
    d74c:	e1b0caa4 	lsrs	ip, r4, #21
    d750:	1a000004 	bne	d768 <__adddf3+0x2b8>
    d754:	e1b00080 	lsls	r0, r0, #1
    d758:	e0b11001 	adcs	r1, r1, r1
    d75c:	23811102 	orrcs	r1, r1, #-2147483648	; 0x80000000
    d760:	e8bd4030 	pop	{r4, r5, lr}
    d764:	e12fff1e 	bx	lr
    d768:	e2944501 	adds	r4, r4, #4194304	; 0x400000
    d76c:	32811601 	addcc	r1, r1, #1048576	; 0x100000
    d770:	38bd4030 	popcc	{r4, r5, lr}
    d774:	312fff1e 	bxcc	lr
    d778:	e2015102 	and	r5, r1, #-2147483648	; 0x80000000
    d77c:	e385147f 	orr	r1, r5, #2130706432	; 0x7f000000
    d780:	e381160f 	orr	r1, r1, #15728640	; 0xf00000
    d784:	e3a00000 	mov	r0, #0
    d788:	e8bd4030 	pop	{r4, r5, lr}
    d78c:	e12fff1e 	bx	lr
    d790:	e1f0cac4 	mvns	ip, r4, asr #21
    d794:	11a01003 	movne	r1, r3
    d798:	11a00002 	movne	r0, r2
    d79c:	01f0cac5 	mvnseq	ip, r5, asr #21
    d7a0:	11a03001 	movne	r3, r1
    d7a4:	11a02000 	movne	r2, r0
    d7a8:	e1904601 	orrs	r4, r0, r1, lsl #12
    d7ac:	01925603 	orrseq	r5, r2, r3, lsl #12
    d7b0:	01310003 	teqeq	r1, r3
    d7b4:	13811702 	orrne	r1, r1, #524288	; 0x80000
    d7b8:	e8bd4030 	pop	{r4, r5, lr}
    d7bc:	e12fff1e 	bx	lr

0000d7c0 <__aeabi_ui2d>:
    d7c0:	e3300000 	teq	r0, #0
    d7c4:	03a01000 	moveq	r1, #0
    d7c8:	012fff1e 	bxeq	lr
    d7cc:	e92d4030 	push	{r4, r5, lr}
    d7d0:	e3a04b01 	mov	r4, #1024	; 0x400
    d7d4:	e2844032 	add	r4, r4, #50	; 0x32
    d7d8:	e3a05000 	mov	r5, #0
    d7dc:	e3a01000 	mov	r1, #0
    d7e0:	eaffff86 	b	d600 <__adddf3+0x150>

0000d7e4 <__aeabi_i2d>:
    d7e4:	e3300000 	teq	r0, #0
    d7e8:	03a01000 	moveq	r1, #0
    d7ec:	012fff1e 	bxeq	lr
    d7f0:	e92d4030 	push	{r4, r5, lr}
    d7f4:	e3a04b01 	mov	r4, #1024	; 0x400
    d7f8:	e2844032 	add	r4, r4, #50	; 0x32
    d7fc:	e2105102 	ands	r5, r0, #-2147483648	; 0x80000000
    d800:	42600000 	rsbmi	r0, r0, #0
    d804:	e3a01000 	mov	r1, #0
    d808:	eaffff7c 	b	d600 <__adddf3+0x150>

0000d80c <__aeabi_f2d>:
    d80c:	e1b02080 	lsls	r2, r0, #1
    d810:	e1a011c2 	asr	r1, r2, #3
    d814:	e1a01061 	rrx	r1, r1
    d818:	e1a00e02 	lsl	r0, r2, #28
    d81c:	121234ff 	andsne	r3, r2, #-16777216	; 0xff000000
    d820:	133304ff 	teqne	r3, #-16777216	; 0xff000000
    d824:	1221130e 	eorne	r1, r1, #939524096	; 0x38000000
    d828:	112fff1e 	bxne	lr
    d82c:	e3d224ff 	bics	r2, r2, #-16777216	; 0xff000000
    d830:	012fff1e 	bxeq	lr
    d834:	e33304ff 	teq	r3, #-16777216	; 0xff000000
    d838:	03811702 	orreq	r1, r1, #524288	; 0x80000
    d83c:	012fff1e 	bxeq	lr
    d840:	e92d4030 	push	{r4, r5, lr}
    d844:	e3a04d0e 	mov	r4, #896	; 0x380
    d848:	e2015102 	and	r5, r1, #-2147483648	; 0x80000000
    d84c:	e3c11102 	bic	r1, r1, #-2147483648	; 0x80000000
    d850:	eaffff6a 	b	d600 <__adddf3+0x150>

0000d854 <__aeabi_ul2d>:
    d854:	e1902001 	orrs	r2, r0, r1
    d858:	012fff1e 	bxeq	lr
    d85c:	e92d4030 	push	{r4, r5, lr}
    d860:	e3a05000 	mov	r5, #0
    d864:	ea000006 	b	d884 <__aeabi_l2d+0x1c>

0000d868 <__aeabi_l2d>:
    d868:	e1902001 	orrs	r2, r0, r1
    d86c:	012fff1e 	bxeq	lr
    d870:	e92d4030 	push	{r4, r5, lr}
    d874:	e2115102 	ands	r5, r1, #-2147483648	; 0x80000000
    d878:	5a000001 	bpl	d884 <__aeabi_l2d+0x1c>
    d87c:	e2700000 	rsbs	r0, r0, #0
    d880:	e2e11000 	rsc	r1, r1, #0
    d884:	e3a04b01 	mov	r4, #1024	; 0x400
    d888:	e2844032 	add	r4, r4, #50	; 0x32
    d88c:	e1b0cb21 	lsrs	ip, r1, #22
    d890:	0affff42 	beq	d5a0 <__adddf3+0xf0>
    d894:	e3a02003 	mov	r2, #3
    d898:	e1b0c1ac 	lsrs	ip, ip, #3
    d89c:	12822003 	addne	r2, r2, #3
    d8a0:	e1b0c1ac 	lsrs	ip, ip, #3
    d8a4:	12822003 	addne	r2, r2, #3
    d8a8:	e08221ac 	add	r2, r2, ip, lsr #3
    d8ac:	e2623020 	rsb	r3, r2, #32
    d8b0:	e1a0c310 	lsl	ip, r0, r3
    d8b4:	e1a00230 	lsr	r0, r0, r2
    d8b8:	e1800311 	orr	r0, r0, r1, lsl r3
    d8bc:	e1a01231 	lsr	r1, r1, r2
    d8c0:	e0844002 	add	r4, r4, r2
    d8c4:	eaffff35 	b	d5a0 <__adddf3+0xf0>

0000d8c8 <__aeabi_dmul>:
    d8c8:	e92d4070 	push	{r4, r5, r6, lr}
    d8cc:	e3a0c0ff 	mov	ip, #255	; 0xff
    d8d0:	e38ccc07 	orr	ip, ip, #1792	; 0x700
    d8d4:	e01c4a21 	ands	r4, ip, r1, lsr #20
    d8d8:	101c5a23 	andsne	r5, ip, r3, lsr #20
    d8dc:	1134000c 	teqne	r4, ip
    d8e0:	1135000c 	teqne	r5, ip
    d8e4:	0b000075 	bleq	dac0 <__aeabi_dmul+0x1f8>
    d8e8:	e0844005 	add	r4, r4, r5
    d8ec:	e0216003 	eor	r6, r1, r3
    d8f0:	e1c11a8c 	bic	r1, r1, ip, lsl #21
    d8f4:	e1c33a8c 	bic	r3, r3, ip, lsl #21
    d8f8:	e1905601 	orrs	r5, r0, r1, lsl #12
    d8fc:	11925603 	orrsne	r5, r2, r3, lsl #12
    d900:	e3811601 	orr	r1, r1, #1048576	; 0x100000
    d904:	e3833601 	orr	r3, r3, #1048576	; 0x100000
    d908:	0a00001d 	beq	d984 <__aeabi_dmul+0xbc>
    d90c:	e08ec290 	umull	ip, lr, r0, r2
    d910:	e3a05000 	mov	r5, #0
    d914:	e0a5e291 	umlal	lr, r5, r1, r2
    d918:	e2062102 	and	r2, r6, #-2147483648	; 0x80000000
    d91c:	e0a5e390 	umlal	lr, r5, r0, r3
    d920:	e3a06000 	mov	r6, #0
    d924:	e0a65391 	umlal	r5, r6, r1, r3
    d928:	e33c0000 	teq	ip, #0
    d92c:	138ee001 	orrne	lr, lr, #1
    d930:	e24440ff 	sub	r4, r4, #255	; 0xff
    d934:	e3560c02 	cmp	r6, #512	; 0x200
    d938:	e2c44c03 	sbc	r4, r4, #768	; 0x300
    d93c:	2a000002 	bcs	d94c <__aeabi_dmul+0x84>
    d940:	e1b0e08e 	lsls	lr, lr, #1
    d944:	e0b55005 	adcs	r5, r5, r5
    d948:	e0a66006 	adc	r6, r6, r6
    d94c:	e1821586 	orr	r1, r2, r6, lsl #11
    d950:	e1811aa5 	orr	r1, r1, r5, lsr #21
    d954:	e1a00585 	lsl	r0, r5, #11
    d958:	e1800aae 	orr	r0, r0, lr, lsr #21
    d95c:	e1a0e58e 	lsl	lr, lr, #11
    d960:	e254c0fd 	subs	ip, r4, #253	; 0xfd
    d964:	835c0c07 	cmphi	ip, #1792	; 0x700
    d968:	8a000011 	bhi	d9b4 <__aeabi_dmul+0xec>
    d96c:	e35e0102 	cmp	lr, #-2147483648	; 0x80000000
    d970:	01b0e0a0 	lsrseq	lr, r0, #1
    d974:	e2b00000 	adcs	r0, r0, #0
    d978:	e0a11a04 	adc	r1, r1, r4, lsl #20
    d97c:	e8bd4070 	pop	{r4, r5, r6, lr}
    d980:	e12fff1e 	bx	lr
    d984:	e2066102 	and	r6, r6, #-2147483648	; 0x80000000
    d988:	e1861001 	orr	r1, r6, r1
    d98c:	e1800002 	orr	r0, r0, r2
    d990:	e0211003 	eor	r1, r1, r3
    d994:	e05440ac 	subs	r4, r4, ip, lsr #1
    d998:	c074500c 	rsbsgt	r5, r4, ip
    d99c:	c1811a04 	orrgt	r1, r1, r4, lsl #20
    d9a0:	c8bd4070 	popgt	{r4, r5, r6, lr}
    d9a4:	c12fff1e 	bxgt	lr
    d9a8:	e3811601 	orr	r1, r1, #1048576	; 0x100000
    d9ac:	e3a0e000 	mov	lr, #0
    d9b0:	e2544001 	subs	r4, r4, #1
    d9b4:	ca00005d 	bgt	db30 <__aeabi_dmul+0x268>
    d9b8:	e3740036 	cmn	r4, #54	; 0x36
    d9bc:	d3a00000 	movle	r0, #0
    d9c0:	d2011102 	andle	r1, r1, #-2147483648	; 0x80000000
    d9c4:	d8bd4070 	pople	{r4, r5, r6, lr}
    d9c8:	d12fff1e 	bxle	lr
    d9cc:	e2644000 	rsb	r4, r4, #0
    d9d0:	e2544020 	subs	r4, r4, #32
    d9d4:	aa00001a 	bge	da44 <__aeabi_dmul+0x17c>
    d9d8:	e294400c 	adds	r4, r4, #12
    d9dc:	ca00000c 	bgt	da14 <__aeabi_dmul+0x14c>
    d9e0:	e2844014 	add	r4, r4, #20
    d9e4:	e2645020 	rsb	r5, r4, #32
    d9e8:	e1a03510 	lsl	r3, r0, r5
    d9ec:	e1a00430 	lsr	r0, r0, r4
    d9f0:	e1800511 	orr	r0, r0, r1, lsl r5
    d9f4:	e2012102 	and	r2, r1, #-2147483648	; 0x80000000
    d9f8:	e3c11102 	bic	r1, r1, #-2147483648	; 0x80000000
    d9fc:	e0900fa3 	adds	r0, r0, r3, lsr #31
    da00:	e0a21431 	adc	r1, r2, r1, lsr r4
    da04:	e19ee083 	orrs	lr, lr, r3, lsl #1
    da08:	01c00fa3 	biceq	r0, r0, r3, lsr #31
    da0c:	e8bd4070 	pop	{r4, r5, r6, lr}
    da10:	e12fff1e 	bx	lr
    da14:	e264400c 	rsb	r4, r4, #12
    da18:	e2645020 	rsb	r5, r4, #32
    da1c:	e1a03410 	lsl	r3, r0, r4
    da20:	e1a00530 	lsr	r0, r0, r5
    da24:	e1800411 	orr	r0, r0, r1, lsl r4
    da28:	e2011102 	and	r1, r1, #-2147483648	; 0x80000000
    da2c:	e0900fa3 	adds	r0, r0, r3, lsr #31
    da30:	e2a11000 	adc	r1, r1, #0
    da34:	e19ee083 	orrs	lr, lr, r3, lsl #1
    da38:	01c00fa3 	biceq	r0, r0, r3, lsr #31
    da3c:	e8bd4070 	pop	{r4, r5, r6, lr}
    da40:	e12fff1e 	bx	lr
    da44:	e2645020 	rsb	r5, r4, #32
    da48:	e18ee510 	orr	lr, lr, r0, lsl r5
    da4c:	e1a03430 	lsr	r3, r0, r4
    da50:	e1833511 	orr	r3, r3, r1, lsl r5
    da54:	e1a00431 	lsr	r0, r1, r4
    da58:	e2011102 	and	r1, r1, #-2147483648	; 0x80000000
    da5c:	e1c00431 	bic	r0, r0, r1, lsr r4
    da60:	e0800fa3 	add	r0, r0, r3, lsr #31
    da64:	e19ee083 	orrs	lr, lr, r3, lsl #1
    da68:	01c00fa3 	biceq	r0, r0, r3, lsr #31
    da6c:	e8bd4070 	pop	{r4, r5, r6, lr}
    da70:	e12fff1e 	bx	lr
    da74:	e3340000 	teq	r4, #0
    da78:	1a000008 	bne	daa0 <__aeabi_dmul+0x1d8>
    da7c:	e2016102 	and	r6, r1, #-2147483648	; 0x80000000
    da80:	e1b00080 	lsls	r0, r0, #1
    da84:	e0a11001 	adc	r1, r1, r1
    da88:	e3110601 	tst	r1, #1048576	; 0x100000
    da8c:	02444001 	subeq	r4, r4, #1
    da90:	0afffffa 	beq	da80 <__aeabi_dmul+0x1b8>
    da94:	e1811006 	orr	r1, r1, r6
    da98:	e3350000 	teq	r5, #0
    da9c:	112fff1e 	bxne	lr
    daa0:	e2036102 	and	r6, r3, #-2147483648	; 0x80000000
    daa4:	e1b02082 	lsls	r2, r2, #1
    daa8:	e0a33003 	adc	r3, r3, r3
    daac:	e3130601 	tst	r3, #1048576	; 0x100000
    dab0:	02455001 	subeq	r5, r5, #1
    dab4:	0afffffa 	beq	daa4 <__aeabi_dmul+0x1dc>
    dab8:	e1833006 	orr	r3, r3, r6
    dabc:	e12fff1e 	bx	lr
    dac0:	e134000c 	teq	r4, ip
    dac4:	e00c5a23 	and	r5, ip, r3, lsr #20
    dac8:	1135000c 	teqne	r5, ip
    dacc:	0a000007 	beq	daf0 <__aeabi_dmul+0x228>
    dad0:	e1906081 	orrs	r6, r0, r1, lsl #1
    dad4:	11926083 	orrsne	r6, r2, r3, lsl #1
    dad8:	1affffe5 	bne	da74 <__aeabi_dmul+0x1ac>
    dadc:	e0211003 	eor	r1, r1, r3
    dae0:	e2011102 	and	r1, r1, #-2147483648	; 0x80000000
    dae4:	e3a00000 	mov	r0, #0
    dae8:	e8bd4070 	pop	{r4, r5, r6, lr}
    daec:	e12fff1e 	bx	lr
    daf0:	e1906081 	orrs	r6, r0, r1, lsl #1
    daf4:	01a00002 	moveq	r0, r2
    daf8:	01a01003 	moveq	r1, r3
    dafc:	11926083 	orrsne	r6, r2, r3, lsl #1
    db00:	0a000010 	beq	db48 <__aeabi_dmul+0x280>
    db04:	e134000c 	teq	r4, ip
    db08:	1a000001 	bne	db14 <__aeabi_dmul+0x24c>
    db0c:	e1906601 	orrs	r6, r0, r1, lsl #12
    db10:	1a00000c 	bne	db48 <__aeabi_dmul+0x280>
    db14:	e135000c 	teq	r5, ip
    db18:	1a000003 	bne	db2c <__aeabi_dmul+0x264>
    db1c:	e1926603 	orrs	r6, r2, r3, lsl #12
    db20:	11a00002 	movne	r0, r2
    db24:	11a01003 	movne	r1, r3
    db28:	1a000006 	bne	db48 <__aeabi_dmul+0x280>
    db2c:	e0211003 	eor	r1, r1, r3
    db30:	e2011102 	and	r1, r1, #-2147483648	; 0x80000000
    db34:	e381147f 	orr	r1, r1, #2130706432	; 0x7f000000
    db38:	e381160f 	orr	r1, r1, #15728640	; 0xf00000
    db3c:	e3a00000 	mov	r0, #0
    db40:	e8bd4070 	pop	{r4, r5, r6, lr}
    db44:	e12fff1e 	bx	lr
    db48:	e381147f 	orr	r1, r1, #2130706432	; 0x7f000000
    db4c:	e381173e 	orr	r1, r1, #16252928	; 0xf80000
    db50:	e8bd4070 	pop	{r4, r5, r6, lr}
    db54:	e12fff1e 	bx	lr

0000db58 <__aeabi_ddiv>:
    db58:	e92d4070 	push	{r4, r5, r6, lr}
    db5c:	e3a0c0ff 	mov	ip, #255	; 0xff
    db60:	e38ccc07 	orr	ip, ip, #1792	; 0x700
    db64:	e01c4a21 	ands	r4, ip, r1, lsr #20
    db68:	101c5a23 	andsne	r5, ip, r3, lsr #20
    db6c:	1134000c 	teqne	r4, ip
    db70:	1135000c 	teqne	r5, ip
    db74:	0b00005e 	bleq	dcf4 <__aeabi_ddiv+0x19c>
    db78:	e0444005 	sub	r4, r4, r5
    db7c:	e021e003 	eor	lr, r1, r3
    db80:	e1925603 	orrs	r5, r2, r3, lsl #12
    db84:	e1a01601 	lsl	r1, r1, #12
    db88:	0a00004c 	beq	dcc0 <__aeabi_ddiv+0x168>
    db8c:	e1a03603 	lsl	r3, r3, #12
    db90:	e3a05201 	mov	r5, #268435456	; 0x10000000
    db94:	e1853223 	orr	r3, r5, r3, lsr #4
    db98:	e1833c22 	orr	r3, r3, r2, lsr #24
    db9c:	e1a02402 	lsl	r2, r2, #8
    dba0:	e1855221 	orr	r5, r5, r1, lsr #4
    dba4:	e1855c20 	orr	r5, r5, r0, lsr #24
    dba8:	e1a06400 	lsl	r6, r0, #8
    dbac:	e20e1102 	and	r1, lr, #-2147483648	; 0x80000000
    dbb0:	e1550003 	cmp	r5, r3
    dbb4:	01560002 	cmpeq	r6, r2
    dbb8:	e2a440fd 	adc	r4, r4, #253	; 0xfd
    dbbc:	e2844c03 	add	r4, r4, #768	; 0x300
    dbc0:	2a000001 	bcs	dbcc <__aeabi_ddiv+0x74>
    dbc4:	e1b030a3 	lsrs	r3, r3, #1
    dbc8:	e1a02062 	rrx	r2, r2
    dbcc:	e0566002 	subs	r6, r6, r2
    dbd0:	e0c55003 	sbc	r5, r5, r3
    dbd4:	e1b030a3 	lsrs	r3, r3, #1
    dbd8:	e1a02062 	rrx	r2, r2
    dbdc:	e3a00601 	mov	r0, #1048576	; 0x100000
    dbe0:	e3a0c702 	mov	ip, #524288	; 0x80000
    dbe4:	e056e002 	subs	lr, r6, r2
    dbe8:	e0d5e003 	sbcs	lr, r5, r3
    dbec:	20466002 	subcs	r6, r6, r2
    dbf0:	21a0500e 	movcs	r5, lr
    dbf4:	2180000c 	orrcs	r0, r0, ip
    dbf8:	e1b030a3 	lsrs	r3, r3, #1
    dbfc:	e1a02062 	rrx	r2, r2
    dc00:	e056e002 	subs	lr, r6, r2
    dc04:	e0d5e003 	sbcs	lr, r5, r3
    dc08:	20466002 	subcs	r6, r6, r2
    dc0c:	21a0500e 	movcs	r5, lr
    dc10:	218000ac 	orrcs	r0, r0, ip, lsr #1
    dc14:	e1b030a3 	lsrs	r3, r3, #1
    dc18:	e1a02062 	rrx	r2, r2
    dc1c:	e056e002 	subs	lr, r6, r2
    dc20:	e0d5e003 	sbcs	lr, r5, r3
    dc24:	20466002 	subcs	r6, r6, r2
    dc28:	21a0500e 	movcs	r5, lr
    dc2c:	2180012c 	orrcs	r0, r0, ip, lsr #2
    dc30:	e1b030a3 	lsrs	r3, r3, #1
    dc34:	e1a02062 	rrx	r2, r2
    dc38:	e056e002 	subs	lr, r6, r2
    dc3c:	e0d5e003 	sbcs	lr, r5, r3
    dc40:	20466002 	subcs	r6, r6, r2
    dc44:	21a0500e 	movcs	r5, lr
    dc48:	218001ac 	orrcs	r0, r0, ip, lsr #3
    dc4c:	e195e006 	orrs	lr, r5, r6
    dc50:	0a00000d 	beq	dc8c <__aeabi_ddiv+0x134>
    dc54:	e1a05205 	lsl	r5, r5, #4
    dc58:	e1855e26 	orr	r5, r5, r6, lsr #28
    dc5c:	e1a06206 	lsl	r6, r6, #4
    dc60:	e1a03183 	lsl	r3, r3, #3
    dc64:	e1833ea2 	orr	r3, r3, r2, lsr #29
    dc68:	e1a02182 	lsl	r2, r2, #3
    dc6c:	e1b0c22c 	lsrs	ip, ip, #4
    dc70:	1affffdb 	bne	dbe4 <__aeabi_ddiv+0x8c>
    dc74:	e3110601 	tst	r1, #1048576	; 0x100000
    dc78:	1a000006 	bne	dc98 <__aeabi_ddiv+0x140>
    dc7c:	e1811000 	orr	r1, r1, r0
    dc80:	e3a00000 	mov	r0, #0
    dc84:	e3a0c102 	mov	ip, #-2147483648	; 0x80000000
    dc88:	eaffffd5 	b	dbe4 <__aeabi_ddiv+0x8c>
    dc8c:	e3110601 	tst	r1, #1048576	; 0x100000
    dc90:	01811000 	orreq	r1, r1, r0
    dc94:	03a00000 	moveq	r0, #0
    dc98:	e254c0fd 	subs	ip, r4, #253	; 0xfd
    dc9c:	835c0c07 	cmphi	ip, #1792	; 0x700
    dca0:	8affff43 	bhi	d9b4 <__aeabi_dmul+0xec>
    dca4:	e055c003 	subs	ip, r5, r3
    dca8:	0056c002 	subseq	ip, r6, r2
    dcac:	01b0c0a0 	lsrseq	ip, r0, #1
    dcb0:	e2b00000 	adcs	r0, r0, #0
    dcb4:	e0a11a04 	adc	r1, r1, r4, lsl #20
    dcb8:	e8bd4070 	pop	{r4, r5, r6, lr}
    dcbc:	e12fff1e 	bx	lr
    dcc0:	e20ee102 	and	lr, lr, #-2147483648	; 0x80000000
    dcc4:	e18e1621 	orr	r1, lr, r1, lsr #12
    dcc8:	e09440ac 	adds	r4, r4, ip, lsr #1
    dccc:	c074500c 	rsbsgt	r5, r4, ip
    dcd0:	c1811a04 	orrgt	r1, r1, r4, lsl #20
    dcd4:	c8bd4070 	popgt	{r4, r5, r6, lr}
    dcd8:	c12fff1e 	bxgt	lr
    dcdc:	e3811601 	orr	r1, r1, #1048576	; 0x100000
    dce0:	e3a0e000 	mov	lr, #0
    dce4:	e2544001 	subs	r4, r4, #1
    dce8:	eaffff31 	b	d9b4 <__aeabi_dmul+0xec>
    dcec:	e185e006 	orr	lr, r5, r6
    dcf0:	eaffff2f 	b	d9b4 <__aeabi_dmul+0xec>
    dcf4:	e00c5a23 	and	r5, ip, r3, lsr #20
    dcf8:	e134000c 	teq	r4, ip
    dcfc:	0135000c 	teqeq	r5, ip
    dd00:	0affff90 	beq	db48 <__aeabi_dmul+0x280>
    dd04:	e134000c 	teq	r4, ip
    dd08:	1a000006 	bne	dd28 <__aeabi_ddiv+0x1d0>
    dd0c:	e1904601 	orrs	r4, r0, r1, lsl #12
    dd10:	1affff8c 	bne	db48 <__aeabi_dmul+0x280>
    dd14:	e135000c 	teq	r5, ip
    dd18:	1affff83 	bne	db2c <__aeabi_dmul+0x264>
    dd1c:	e1a00002 	mov	r0, r2
    dd20:	e1a01003 	mov	r1, r3
    dd24:	eaffff87 	b	db48 <__aeabi_dmul+0x280>
    dd28:	e135000c 	teq	r5, ip
    dd2c:	1a000004 	bne	dd44 <__aeabi_ddiv+0x1ec>
    dd30:	e1925603 	orrs	r5, r2, r3, lsl #12
    dd34:	0affff68 	beq	dadc <__aeabi_dmul+0x214>
    dd38:	e1a00002 	mov	r0, r2
    dd3c:	e1a01003 	mov	r1, r3
    dd40:	eaffff80 	b	db48 <__aeabi_dmul+0x280>
    dd44:	e1906081 	orrs	r6, r0, r1, lsl #1
    dd48:	11926083 	orrsne	r6, r2, r3, lsl #1
    dd4c:	1affff48 	bne	da74 <__aeabi_dmul+0x1ac>
    dd50:	e1904081 	orrs	r4, r0, r1, lsl #1
    dd54:	1affff74 	bne	db2c <__aeabi_dmul+0x264>
    dd58:	e1925083 	orrs	r5, r2, r3, lsl #1
    dd5c:	1affff5e 	bne	dadc <__aeabi_dmul+0x214>
    dd60:	eaffff78 	b	db48 <__aeabi_dmul+0x280>

0000dd64 <__gedf2>:
    dd64:	e3e0c000 	mvn	ip, #0
    dd68:	ea000002 	b	dd78 <__cmpdf2+0x4>

0000dd6c <__ledf2>:
    dd6c:	e3a0c001 	mov	ip, #1
    dd70:	ea000000 	b	dd78 <__cmpdf2+0x4>

0000dd74 <__cmpdf2>:
    dd74:	e3a0c001 	mov	ip, #1
    dd78:	e52dc004 	push	{ip}		; (str ip, [sp, #-4]!)
    dd7c:	e1a0c081 	lsl	ip, r1, #1
    dd80:	e1f0cacc 	mvns	ip, ip, asr #21
    dd84:	e1a0c083 	lsl	ip, r3, #1
    dd88:	11f0cacc 	mvnsne	ip, ip, asr #21
    dd8c:	0a00000e 	beq	ddcc <__cmpdf2+0x58>
    dd90:	e28dd004 	add	sp, sp, #4
    dd94:	e190c081 	orrs	ip, r0, r1, lsl #1
    dd98:	0192c083 	orrseq	ip, r2, r3, lsl #1
    dd9c:	11310003 	teqne	r1, r3
    dda0:	01300002 	teqeq	r0, r2
    dda4:	03a00000 	moveq	r0, #0
    dda8:	012fff1e 	bxeq	lr
    ddac:	e3700000 	cmn	r0, #0
    ddb0:	e1310003 	teq	r1, r3
    ddb4:	51510003 	cmppl	r1, r3
    ddb8:	01500002 	cmpeq	r0, r2
    ddbc:	21a00fc3 	asrcs	r0, r3, #31
    ddc0:	31e00fc3 	mvncc	r0, r3, asr #31
    ddc4:	e3800001 	orr	r0, r0, #1
    ddc8:	e12fff1e 	bx	lr
    ddcc:	e1a0c081 	lsl	ip, r1, #1
    ddd0:	e1f0cacc 	mvns	ip, ip, asr #21
    ddd4:	1a000001 	bne	dde0 <__cmpdf2+0x6c>
    ddd8:	e190c601 	orrs	ip, r0, r1, lsl #12
    dddc:	1a000004 	bne	ddf4 <__cmpdf2+0x80>
    dde0:	e1a0c083 	lsl	ip, r3, #1
    dde4:	e1f0cacc 	mvns	ip, ip, asr #21
    dde8:	1affffe8 	bne	dd90 <__cmpdf2+0x1c>
    ddec:	e192c603 	orrs	ip, r2, r3, lsl #12
    ddf0:	0affffe6 	beq	dd90 <__cmpdf2+0x1c>
    ddf4:	e49d0004 	pop	{r0}		; (ldr r0, [sp], #4)
    ddf8:	e12fff1e 	bx	lr

0000ddfc <__aeabi_cdrcmple>:
    ddfc:	e1a0c000 	mov	ip, r0
    de00:	e1a00002 	mov	r0, r2
    de04:	e1a0200c 	mov	r2, ip
    de08:	e1a0c001 	mov	ip, r1
    de0c:	e1a01003 	mov	r1, r3
    de10:	e1a0300c 	mov	r3, ip
    de14:	eaffffff 	b	de18 <__aeabi_cdcmpeq>

0000de18 <__aeabi_cdcmpeq>:
    de18:	e92d4001 	push	{r0, lr}
    de1c:	ebffffd4 	bl	dd74 <__cmpdf2>
    de20:	e3500000 	cmp	r0, #0
    de24:	43700000 	cmnmi	r0, #0
    de28:	e8bd4001 	pop	{r0, lr}
    de2c:	e12fff1e 	bx	lr

0000de30 <__aeabi_dcmpeq>:
    de30:	e52de008 	str	lr, [sp, #-8]!
    de34:	ebfffff7 	bl	de18 <__aeabi_cdcmpeq>
    de38:	03a00001 	moveq	r0, #1
    de3c:	13a00000 	movne	r0, #0
    de40:	e49de008 	ldr	lr, [sp], #8
    de44:	e12fff1e 	bx	lr

0000de48 <__aeabi_dcmplt>:
    de48:	e52de008 	str	lr, [sp, #-8]!
    de4c:	ebfffff1 	bl	de18 <__aeabi_cdcmpeq>
    de50:	33a00001 	movcc	r0, #1
    de54:	23a00000 	movcs	r0, #0
    de58:	e49de008 	ldr	lr, [sp], #8
    de5c:	e12fff1e 	bx	lr

0000de60 <__aeabi_dcmple>:
    de60:	e52de008 	str	lr, [sp, #-8]!
    de64:	ebffffeb 	bl	de18 <__aeabi_cdcmpeq>
    de68:	93a00001 	movls	r0, #1
    de6c:	83a00000 	movhi	r0, #0
    de70:	e49de008 	ldr	lr, [sp], #8
    de74:	e12fff1e 	bx	lr

0000de78 <__aeabi_dcmpge>:
    de78:	e52de008 	str	lr, [sp, #-8]!
    de7c:	ebffffde 	bl	ddfc <__aeabi_cdrcmple>
    de80:	93a00001 	movls	r0, #1
    de84:	83a00000 	movhi	r0, #0
    de88:	e49de008 	ldr	lr, [sp], #8
    de8c:	e12fff1e 	bx	lr

0000de90 <__aeabi_dcmpgt>:
    de90:	e52de008 	str	lr, [sp, #-8]!
    de94:	ebffffd8 	bl	ddfc <__aeabi_cdrcmple>
    de98:	33a00001 	movcc	r0, #1
    de9c:	23a00000 	movcs	r0, #0
    dea0:	e49de008 	ldr	lr, [sp], #8
    dea4:	e12fff1e 	bx	lr

0000dea8 <__aeabi_d2iz>:
    dea8:	e1a02081 	lsl	r2, r1, #1
    deac:	e2922602 	adds	r2, r2, #2097152	; 0x200000
    deb0:	2a00000c 	bcs	dee8 <__aeabi_d2iz+0x40>
    deb4:	5a000009 	bpl	dee0 <__aeabi_d2iz+0x38>
    deb8:	e3e03e3e 	mvn	r3, #992	; 0x3e0
    debc:	e0532ac2 	subs	r2, r3, r2, asr #21
    dec0:	9a00000a 	bls	def0 <__aeabi_d2iz+0x48>
    dec4:	e1a03581 	lsl	r3, r1, #11
    dec8:	e3833102 	orr	r3, r3, #-2147483648	; 0x80000000
    decc:	e1833aa0 	orr	r3, r3, r0, lsr #21
    ded0:	e3110102 	tst	r1, #-2147483648	; 0x80000000
    ded4:	e1a00233 	lsr	r0, r3, r2
    ded8:	12600000 	rsbne	r0, r0, #0
    dedc:	e12fff1e 	bx	lr
    dee0:	e3a00000 	mov	r0, #0
    dee4:	e12fff1e 	bx	lr
    dee8:	e1900601 	orrs	r0, r0, r1, lsl #12
    deec:	1a000002 	bne	defc <__aeabi_d2iz+0x54>
    def0:	e2110102 	ands	r0, r1, #-2147483648	; 0x80000000
    def4:	03e00102 	mvneq	r0, #-2147483648	; 0x80000000
    def8:	e12fff1e 	bx	lr
    defc:	e3a00000 	mov	r0, #0
    df00:	e12fff1e 	bx	lr

0000df04 <__aeabi_d2uiz>:
    df04:	e1b02081 	lsls	r2, r1, #1
    df08:	2a00000a 	bcs	df38 <__aeabi_d2uiz+0x34>
    df0c:	e2922602 	adds	r2, r2, #2097152	; 0x200000
    df10:	2a00000a 	bcs	df40 <__aeabi_d2uiz+0x3c>
    df14:	5a000007 	bpl	df38 <__aeabi_d2uiz+0x34>
    df18:	e3e03e3e 	mvn	r3, #992	; 0x3e0
    df1c:	e0532ac2 	subs	r2, r3, r2, asr #21
    df20:	4a000008 	bmi	df48 <__aeabi_d2uiz+0x44>
    df24:	e1a03581 	lsl	r3, r1, #11
    df28:	e3833102 	orr	r3, r3, #-2147483648	; 0x80000000
    df2c:	e1833aa0 	orr	r3, r3, r0, lsr #21
    df30:	e1a00233 	lsr	r0, r3, r2
    df34:	e12fff1e 	bx	lr
    df38:	e3a00000 	mov	r0, #0
    df3c:	e12fff1e 	bx	lr
    df40:	e1900601 	orrs	r0, r0, r1, lsl #12
    df44:	1a000001 	bne	df50 <__aeabi_d2uiz+0x4c>
    df48:	e3e00000 	mvn	r0, #0
    df4c:	e12fff1e 	bx	lr
    df50:	e3a00000 	mov	r0, #0
    df54:	e12fff1e 	bx	lr

Disassembly of section .rodata.str1.4:

0000df58 <.rodata.str1.4>:
    df58:	00000020 	andeq	r0, r0, r0, lsr #32
    df5c:	0000003f 	andeq	r0, r0, pc, lsr r0
    df60:	0000004d 	andeq	r0, r0, sp, asr #32
    df64:	00000049 	andeq	r0, r0, r9, asr #32
    df68:	00000045 	andeq	r0, r0, r5, asr #32
    df6c:	00000041 	andeq	r0, r0, r1, asr #32
    df70:	00000030 	andeq	r0, r0, r0, lsr r0
    df74:	00000032 	andeq	r0, r0, r2, lsr r0
    df78:	00000035 	andeq	r0, r0, r5, lsr r0
    df7c:	00000038 	andeq	r0, r0, r8, lsr r0
    df80:	00000059 	andeq	r0, r0, r9, asr r0
    df84:	00000057 	andeq	r0, r0, r7, asr r0
    df88:	00000054 	andeq	r0, r0, r4, asr r0
    df8c:	00000051 	andeq	r0, r0, r1, asr r0
    df90:	0000004e 	andeq	r0, r0, lr, asr #32
    df94:	0000004a 	andeq	r0, r0, sl, asr #32
    df98:	00000046 	andeq	r0, r0, r6, asr #32
    df9c:	00000042 	andeq	r0, r0, r2, asr #32
    dfa0:	0000003d 	andeq	r0, r0, sp, lsr r0
    dfa4:	00000033 	andeq	r0, r0, r3, lsr r0
    dfa8:	00000036 	andeq	r0, r0, r6, lsr r0
    dfac:	00000039 	andeq	r0, r0, r9, lsr r0
    dfb0:	0000005a 	andeq	r0, r0, sl, asr r0
    dfb4:	00000058 	andeq	r0, r0, r8, asr r0
    dfb8:	00000055 	andeq	r0, r0, r5, asr r0
    dfbc:	00000052 	andeq	r0, r0, r2, asr r0
    dfc0:	0000004f 	andeq	r0, r0, pc, asr #32
    dfc4:	0000004b 	andeq	r0, r0, fp, asr #32
    dfc8:	00000047 	andeq	r0, r0, r7, asr #32
    dfcc:	00000043 	andeq	r0, r0, r3, asr #32
    dfd0:	0000002b 	andeq	r0, r0, fp, lsr #32
    dfd4:	0000002d 	andeq	r0, r0, sp, lsr #32
    dfd8:	0000002a 	andeq	r0, r0, sl, lsr #32
    dfdc:	0000002f 	andeq	r0, r0, pc, lsr #32
    dfe0:	0000007c 	andeq	r0, r0, ip, ror r0
    dfe4:	00000056 	andeq	r0, r0, r6, asr r0
    dfe8:	00000053 	andeq	r0, r0, r3, asr r0
    dfec:	00000050 	andeq	r0, r0, r0, asr r0
    dff0:	0000004c 	andeq	r0, r0, ip, asr #32
    dff4:	00000048 	andeq	r0, r0, r8, asr #32
    dff8:	00000044 	andeq	r0, r0, r4, asr #32
    dffc:	0000002e 	andeq	r0, r0, lr, lsr #32
    e000:	00000037 	andeq	r0, r0, r7, lsr r0
    e004:	00000034 	andeq	r0, r0, r4, lsr r0
    e008:	00000031 	andeq	r0, r0, r1, lsr r0
    e00c:	00000063 	andeq	r0, r0, r3, rrx
    e010:	0000006e 	andeq	r0, r0, lr, rrx
    e014:	00000073 	andeq	r0, r0, r3, ror r0
    e018:	00000074 	andeq	r0, r0, r4, ror r0
    e01c:	00000028 	andeq	r0, r0, r8, lsr #32
    e020:	00000067 	andeq	r0, r0, r7, rrx
    e024:	0000005f 	andeq	r0, r0, pc, asr r0
    e028:	0000005e 	andeq	r0, r0, lr, asr r0
    e02c:	00000029 	andeq	r0, r0, r9, lsr #32
    e030:	33323130 	teqcc	r2, #48, 2
    e034:	37363534 			; <UNDEFINED> instruction: 0x37363534
    e038:	42413938 	submi	r3, r1, #56, 18	; 0xe0000
    e03c:	46454443 	strbmi	r4, [r5], -r3, asr #8
    e040:	00000000 	andeq	r0, r0, r0
    e044:	33323130 	teqcc	r2, #48, 2
    e048:	37363534 			; <UNDEFINED> instruction: 0x37363534
    e04c:	00003938 	andeq	r3, r0, r8, lsr r9
    e050:	72746e65 	rsbsvc	r6, r4, #1616	; 0x650
    e054:	00000079 	andeq	r0, r0, r9, ror r0
    e058:	00003d59 	andeq	r3, r0, r9, asr sp
    e05c:	284e4953 	stmdacs	lr, {r0, r1, r4, r6, r8, fp, lr}^
    e060:	00000000 	andeq	r0, r0, r0
    e064:	28474f4c 	stmdacs	r7, {r2, r3, r6, r8, r9, sl, fp, lr}^
    e068:	00000000 	andeq	r0, r0, r0
    e06c:	00284e4c 	eoreq	r4, r8, ip, asr #28
    e070:	28534f43 	ldmdacs	r3, {r0, r1, r6, r8, r9, sl, fp, lr}^
    e074:	00000000 	andeq	r0, r0, r0
    e078:	284e4154 	stmdacs	lr, {r2, r4, r6, r8, lr}^
    e07c:	00000000 	andeq	r0, r0, r0
    e080:	00454e4f 	subeq	r4, r5, pc, asr #28
    e084:	004f5754 	subeq	r5, pc, r4, asr r7	; <UNPREDICTABLE>

Disassembly of section .rodata:

0000e088 <font_data>:
	...
    e0d8:	ff000000 			; <UNDEFINED> instruction: 0xff000000
    e0dc:	00000000 	andeq	r0, r0, r0
    e0e0:	ff000000 			; <UNDEFINED> instruction: 0xff000000
    e0e4:	00000000 	andeq	r0, r0, r0
    e0e8:	ff000000 			; <UNDEFINED> instruction: 0xff000000
    e0ec:	00000000 	andeq	r0, r0, r0
    e0f0:	ff000000 			; <UNDEFINED> instruction: 0xff000000
    e0f4:	00000000 	andeq	r0, r0, r0
    e0f8:	ff000000 			; <UNDEFINED> instruction: 0xff000000
	...
    e110:	ff000000 			; <UNDEFINED> instruction: 0xff000000
    e114:	00000000 	andeq	r0, r0, r0
    e118:	ff000000 			; <UNDEFINED> instruction: 0xff000000
	...
    e130:	00ff0000 	rscseq	r0, pc, r0
    e134:	000000ff 	strdeq	r0, [r0], -pc	; <UNPREDICTABLE>
    e138:	00ff0000 	rscseq	r0, pc, r0
    e13c:	000000ff 	strdeq	r0, [r0], -pc	; <UNPREDICTABLE>
	...
    e188:	00ff0000 	rscseq	r0, pc, r0
    e18c:	000000ff 	strdeq	r0, [r0], -pc	; <UNPREDICTABLE>
    e190:	ffffff00 			; <UNDEFINED> instruction: 0xffffff00
    e194:	0000ffff 	strdeq	pc, [r0], -pc	; <UNPREDICTABLE>
    e198:	00ff0000 	rscseq	r0, pc, r0
    e19c:	000000ff 	strdeq	r0, [r0], -pc	; <UNPREDICTABLE>
    e1a0:	ffffff00 			; <UNDEFINED> instruction: 0xffffff00
    e1a4:	0000ffff 	strdeq	pc, [r0], -pc	; <UNPREDICTABLE>
    e1a8:	00ff0000 	rscseq	r0, pc, r0
    e1ac:	000000ff 	strdeq	r0, [r0], -pc	; <UNPREDICTABLE>
	...
    e1c8:	ff000000 			; <UNDEFINED> instruction: 0xff000000
    e1cc:	00000000 	andeq	r0, r0, r0
    e1d0:	ffff0000 			; <UNDEFINED> instruction: 0xffff0000
    e1d4:	000000ff 	strdeq	r0, [r0], -pc	; <UNPREDICTABLE>
    e1d8:	0000ff00 	andeq	pc, r0, r0, lsl #30
    e1dc:	0000ff00 	andeq	pc, r0, r0, lsl #30
    e1e0:	0000ff00 	andeq	pc, r0, r0, lsl #30
    e1e4:	00000000 	andeq	r0, r0, r0
    e1e8:	ffff0000 			; <UNDEFINED> instruction: 0xffff0000
    e1ec:	000000ff 	strdeq	r0, [r0], -pc	; <UNPREDICTABLE>
    e1f0:	00000000 	andeq	r0, r0, r0
    e1f4:	0000ff00 	andeq	pc, r0, r0, lsl #30
    e1f8:	0000ff00 	andeq	pc, r0, r0, lsl #30
    e1fc:	0000ff00 	andeq	pc, r0, r0, lsl #30
    e200:	ffff0000 			; <UNDEFINED> instruction: 0xffff0000
    e204:	000000ff 	strdeq	r0, [r0], -pc	; <UNPREDICTABLE>
    e208:	ff000000 			; <UNDEFINED> instruction: 0xff000000
	...
    e224:	0000ff00 	andeq	pc, r0, r0, lsl #30
    e228:	0000ff00 	andeq	pc, r0, r0, lsl #30
    e22c:	000000ff 	strdeq	r0, [r0], -pc	; <UNPREDICTABLE>
    e230:	00000000 	andeq	r0, r0, r0
    e234:	000000ff 	strdeq	r0, [r0], -pc	; <UNPREDICTABLE>
    e238:	ff000000 			; <UNDEFINED> instruction: 0xff000000
    e23c:	00000000 	andeq	r0, r0, r0
    e240:	00ff0000 	rscseq	r0, pc, r0
    e244:	00000000 	andeq	r0, r0, r0
    e248:	00ff0000 	rscseq	r0, pc, r0
    e24c:	0000ff00 	andeq	pc, r0, r0, lsl #30
    e250:	0000ff00 	andeq	pc, r0, r0, lsl #30
	...
    e268:	ffffff00 			; <UNDEFINED> instruction: 0xffffff00
    e26c:	000000ff 	strdeq	r0, [r0], -pc	; <UNPREDICTABLE>
    e270:	000000ff 	strdeq	r0, [r0], -pc	; <UNPREDICTABLE>
    e274:	0000ff00 	andeq	pc, r0, r0, lsl #30
    e278:	000000ff 	strdeq	r0, [r0], -pc	; <UNPREDICTABLE>
    e27c:	000000ff 	strdeq	r0, [r0], -pc	; <UNPREDICTABLE>
    e280:	ff00ff00 			; <UNDEFINED> instruction: 0xff00ff00
    e284:	00000000 	andeq	r0, r0, r0
    e288:	00ff0000 	rscseq	r0, pc, r0
    e28c:	00000000 	andeq	r0, r0, r0
    e290:	ff00ff00 			; <UNDEFINED> instruction: 0xff00ff00
    e294:	0000ff00 	andeq	pc, r0, r0, lsl #30
    e298:	000000ff 	strdeq	r0, [r0], -pc	; <UNPREDICTABLE>
    e29c:	000000ff 	strdeq	r0, [r0], -pc	; <UNPREDICTABLE>
    e2a0:	ff0000ff 			; <UNDEFINED> instruction: 0xff0000ff
    e2a4:	0000ff00 	andeq	pc, r0, r0, lsl #30
    e2a8:	00ffff00 	rscseq	pc, pc, r0, lsl #30
    e2ac:	00ff0000 	rscseq	r0, pc, r0
	...
    e2c0:	ff000000 			; <UNDEFINED> instruction: 0xff000000
    e2c4:	00000000 	andeq	r0, r0, r0
    e2c8:	ff000000 			; <UNDEFINED> instruction: 0xff000000
	...
    e30c:	00ff0000 	rscseq	r0, pc, r0
    e310:	00000000 	andeq	r0, r0, r0
    e314:	0000ff00 	andeq	pc, r0, r0, lsl #30
    e318:	00000000 	andeq	r0, r0, r0
    e31c:	000000ff 	strdeq	r0, [r0], -pc	; <UNPREDICTABLE>
    e320:	ff000000 			; <UNDEFINED> instruction: 0xff000000
    e324:	00000000 	andeq	r0, r0, r0
    e328:	ff000000 			; <UNDEFINED> instruction: 0xff000000
    e32c:	00000000 	andeq	r0, r0, r0
    e330:	ff000000 			; <UNDEFINED> instruction: 0xff000000
	...
    e33c:	000000ff 	strdeq	r0, [r0], -pc	; <UNPREDICTABLE>
    e340:	00000000 	andeq	r0, r0, r0
    e344:	0000ff00 	andeq	pc, r0, r0, lsl #30
    e348:	00000000 	andeq	r0, r0, r0
    e34c:	00ff0000 	rscseq	r0, pc, r0
	...
    e358:	0000ff00 	andeq	pc, r0, r0, lsl #30
    e35c:	00000000 	andeq	r0, r0, r0
    e360:	00ff0000 	rscseq	r0, pc, r0
    e364:	00000000 	andeq	r0, r0, r0
    e368:	ff000000 			; <UNDEFINED> instruction: 0xff000000
	...
    e374:	000000ff 	strdeq	r0, [r0], -pc	; <UNPREDICTABLE>
    e378:	00000000 	andeq	r0, r0, r0
    e37c:	000000ff 	strdeq	r0, [r0], -pc	; <UNPREDICTABLE>
    e380:	00000000 	andeq	r0, r0, r0
    e384:	000000ff 	strdeq	r0, [r0], -pc	; <UNPREDICTABLE>
    e388:	ff000000 			; <UNDEFINED> instruction: 0xff000000
    e38c:	00000000 	andeq	r0, r0, r0
    e390:	00ff0000 	rscseq	r0, pc, r0
    e394:	00000000 	andeq	r0, r0, r0
    e398:	0000ff00 	andeq	pc, r0, r0, lsl #30
	...
    e3b0:	ff000000 			; <UNDEFINED> instruction: 0xff000000
    e3b4:	00000000 	andeq	r0, r0, r0
    e3b8:	ff000000 			; <UNDEFINED> instruction: 0xff000000
    e3bc:	00000000 	andeq	r0, r0, r0
    e3c0:	ffffff00 			; <UNDEFINED> instruction: 0xffffff00
    e3c4:	0000ffff 	strdeq	pc, [r0], -pc	; <UNPREDICTABLE>
    e3c8:	ff000000 			; <UNDEFINED> instruction: 0xff000000
    e3cc:	00000000 	andeq	r0, r0, r0
    e3d0:	00ff0000 	rscseq	r0, pc, r0
    e3d4:	000000ff 	strdeq	r0, [r0], -pc	; <UNPREDICTABLE>
    e3d8:	0000ff00 	andeq	pc, r0, r0, lsl #30
    e3dc:	0000ff00 	andeq	pc, r0, r0, lsl #30
	...
    e408:	ff000000 			; <UNDEFINED> instruction: 0xff000000
    e40c:	00000000 	andeq	r0, r0, r0
    e410:	ff000000 			; <UNDEFINED> instruction: 0xff000000
    e414:	00000000 	andeq	r0, r0, r0
    e418:	ffffff00 			; <UNDEFINED> instruction: 0xffffff00
    e41c:	0000ffff 	strdeq	pc, [r0], -pc	; <UNPREDICTABLE>
    e420:	ff000000 			; <UNDEFINED> instruction: 0xff000000
    e424:	00000000 	andeq	r0, r0, r0
    e428:	ff000000 			; <UNDEFINED> instruction: 0xff000000
	...
    e478:	ff000000 			; <UNDEFINED> instruction: 0xff000000
    e47c:	00000000 	andeq	r0, r0, r0
    e480:	ff000000 			; <UNDEFINED> instruction: 0xff000000
    e484:	00000000 	andeq	r0, r0, r0
    e488:	00ff0000 	rscseq	r0, pc, r0
	...
    e4b8:	ffffffff 			; <UNDEFINED> instruction: 0xffffffff
    e4bc:	00ffffff 	ldrshteq	pc, [pc], #255	; <UNPREDICTABLE>
	...
    e520:	ff000000 			; <UNDEFINED> instruction: 0xff000000
	...
    e53c:	00ff0000 	rscseq	r0, pc, r0
    e540:	00000000 	andeq	r0, r0, r0
    e544:	0000ff00 	andeq	pc, r0, r0, lsl #30
    e548:	00000000 	andeq	r0, r0, r0
    e54c:	000000ff 	strdeq	r0, [r0], -pc	; <UNPREDICTABLE>
    e550:	00000000 	andeq	r0, r0, r0
    e554:	000000ff 	strdeq	r0, [r0], -pc	; <UNPREDICTABLE>
    e558:	ff000000 			; <UNDEFINED> instruction: 0xff000000
    e55c:	00000000 	andeq	r0, r0, r0
    e560:	00ff0000 	rscseq	r0, pc, r0
    e564:	00000000 	andeq	r0, r0, r0
    e568:	0000ff00 	andeq	pc, r0, r0, lsl #30
    e56c:	00000000 	andeq	r0, r0, r0
    e570:	0000ff00 	andeq	pc, r0, r0, lsl #30
    e574:	00000000 	andeq	r0, r0, r0
    e578:	000000ff 	strdeq	r0, [r0], -pc	; <UNPREDICTABLE>
	...
    e588:	ffff0000 			; <UNDEFINED> instruction: 0xffff0000
    e58c:	000000ff 	strdeq	r0, [r0], -pc	; <UNPREDICTABLE>
    e590:	0000ff00 	andeq	pc, r0, r0, lsl #30
    e594:	0000ff00 	andeq	pc, r0, r0, lsl #30
    e598:	0000ff00 	andeq	pc, r0, r0, lsl #30
    e59c:	0000ff00 	andeq	pc, r0, r0, lsl #30
    e5a0:	0000ff00 	andeq	pc, r0, r0, lsl #30
    e5a4:	0000ff00 	andeq	pc, r0, r0, lsl #30
    e5a8:	ff00ff00 			; <UNDEFINED> instruction: 0xff00ff00
    e5ac:	0000ff00 	andeq	pc, r0, r0, lsl #30
    e5b0:	0000ff00 	andeq	pc, r0, r0, lsl #30
    e5b4:	0000ff00 	andeq	pc, r0, r0, lsl #30
    e5b8:	0000ff00 	andeq	pc, r0, r0, lsl #30
    e5bc:	0000ff00 	andeq	pc, r0, r0, lsl #30
    e5c0:	0000ff00 	andeq	pc, r0, r0, lsl #30
    e5c4:	0000ff00 	andeq	pc, r0, r0, lsl #30
    e5c8:	ffff0000 			; <UNDEFINED> instruction: 0xffff0000
    e5cc:	000000ff 	strdeq	r0, [r0], -pc	; <UNPREDICTABLE>
	...
    e5d8:	ffffffff 			; <UNDEFINED> instruction: 0xffffffff
    e5dc:	00000000 	andeq	r0, r0, r0
    e5e0:	ff000000 			; <UNDEFINED> instruction: 0xff000000
    e5e4:	00000000 	andeq	r0, r0, r0
    e5e8:	ff000000 			; <UNDEFINED> instruction: 0xff000000
    e5ec:	00000000 	andeq	r0, r0, r0
    e5f0:	ff000000 			; <UNDEFINED> instruction: 0xff000000
    e5f4:	00000000 	andeq	r0, r0, r0
    e5f8:	ff000000 			; <UNDEFINED> instruction: 0xff000000
    e5fc:	00000000 	andeq	r0, r0, r0
    e600:	ff000000 			; <UNDEFINED> instruction: 0xff000000
    e604:	00000000 	andeq	r0, r0, r0
    e608:	ff000000 			; <UNDEFINED> instruction: 0xff000000
    e60c:	00000000 	andeq	r0, r0, r0
    e610:	ff000000 			; <UNDEFINED> instruction: 0xff000000
    e614:	00000000 	andeq	r0, r0, r0
    e618:	ffffffff 			; <UNDEFINED> instruction: 0xffffffff
    e61c:	00ffffff 	ldrshteq	pc, [pc], #255	; <UNPREDICTABLE>
	...
    e628:	ffffff00 			; <UNDEFINED> instruction: 0xffffff00
    e62c:	000000ff 	strdeq	r0, [r0], -pc	; <UNPREDICTABLE>
    e630:	000000ff 	strdeq	r0, [r0], -pc	; <UNPREDICTABLE>
    e634:	0000ff00 	andeq	pc, r0, r0, lsl #30
    e638:	00000000 	andeq	r0, r0, r0
    e63c:	00ff0000 	rscseq	r0, pc, r0
    e640:	00000000 	andeq	r0, r0, r0
    e644:	00ff0000 	rscseq	r0, pc, r0
    e648:	00000000 	andeq	r0, r0, r0
    e64c:	0000ff00 	andeq	pc, r0, r0, lsl #30
    e650:	ff000000 			; <UNDEFINED> instruction: 0xff000000
    e654:	000000ff 	strdeq	r0, [r0], -pc	; <UNPREDICTABLE>
    e658:	00ffff00 	rscseq	pc, pc, r0, lsl #30
    e65c:	00000000 	andeq	r0, r0, r0
    e660:	000000ff 	strdeq	r0, [r0], -pc	; <UNPREDICTABLE>
    e664:	00000000 	andeq	r0, r0, r0
    e668:	ffffffff 			; <UNDEFINED> instruction: 0xffffffff
    e66c:	00ffffff 	ldrshteq	pc, [pc], #255	; <UNPREDICTABLE>
	...
    e678:	ffff0000 			; <UNDEFINED> instruction: 0xffff0000
    e67c:	000000ff 	strdeq	r0, [r0], -pc	; <UNPREDICTABLE>
    e680:	0000ffff 	strdeq	pc, [r0], -pc	; <UNPREDICTABLE>
    e684:	00ffff00 	rscseq	pc, pc, r0, lsl #30
    e688:	00000000 	andeq	r0, r0, r0
    e68c:	00ff0000 	rscseq	r0, pc, r0
    e690:	00000000 	andeq	r0, r0, r0
    e694:	00ffff00 	rscseq	pc, pc, r0, lsl #30
    e698:	ff000000 			; <UNDEFINED> instruction: 0xff000000
    e69c:	0000ffff 	strdeq	pc, [r0], -pc	; <UNPREDICTABLE>
    e6a0:	00000000 	andeq	r0, r0, r0
    e6a4:	00ffff00 	rscseq	pc, pc, r0, lsl #30
    e6a8:	00000000 	andeq	r0, r0, r0
    e6ac:	00ff0000 	rscseq	r0, pc, r0
    e6b0:	0000ffff 	strdeq	pc, [r0], -pc	; <UNPREDICTABLE>
    e6b4:	00ffff00 	rscseq	pc, pc, r0, lsl #30
    e6b8:	ffff0000 			; <UNDEFINED> instruction: 0xffff0000
    e6bc:	000000ff 	strdeq	r0, [r0], -pc	; <UNPREDICTABLE>
	...
    e6c8:	000000ff 	strdeq	r0, [r0], -pc	; <UNPREDICTABLE>
    e6cc:	0000ff00 	andeq	pc, r0, r0, lsl #30
    e6d0:	000000ff 	strdeq	r0, [r0], -pc	; <UNPREDICTABLE>
    e6d4:	0000ff00 	andeq	pc, r0, r0, lsl #30
    e6d8:	000000ff 	strdeq	r0, [r0], -pc	; <UNPREDICTABLE>
    e6dc:	0000ff00 	andeq	pc, r0, r0, lsl #30
    e6e0:	000000ff 	strdeq	r0, [r0], -pc	; <UNPREDICTABLE>
    e6e4:	0000ff00 	andeq	pc, r0, r0, lsl #30
    e6e8:	ffffffff 			; <UNDEFINED> instruction: 0xffffffff
    e6ec:	00ffffff 	ldrshteq	pc, [pc], #255	; <UNPREDICTABLE>
    e6f0:	00000000 	andeq	r0, r0, r0
    e6f4:	0000ff00 	andeq	pc, r0, r0, lsl #30
    e6f8:	00000000 	andeq	r0, r0, r0
    e6fc:	0000ff00 	andeq	pc, r0, r0, lsl #30
    e700:	00000000 	andeq	r0, r0, r0
    e704:	0000ff00 	andeq	pc, r0, r0, lsl #30
    e708:	00000000 	andeq	r0, r0, r0
    e70c:	0000ff00 	andeq	pc, r0, r0, lsl #30
	...
    e718:	ffffffff 			; <UNDEFINED> instruction: 0xffffffff
    e71c:	00ffffff 	ldrshteq	pc, [pc], #255	; <UNPREDICTABLE>
    e720:	000000ff 	strdeq	r0, [r0], -pc	; <UNPREDICTABLE>
    e724:	00000000 	andeq	r0, r0, r0
    e728:	000000ff 	strdeq	r0, [r0], -pc	; <UNPREDICTABLE>
    e72c:	00000000 	andeq	r0, r0, r0
    e730:	000000ff 	strdeq	r0, [r0], -pc	; <UNPREDICTABLE>
    e734:	00000000 	andeq	r0, r0, r0
    e738:	ffffffff 			; <UNDEFINED> instruction: 0xffffffff
    e73c:	000000ff 	strdeq	r0, [r0], -pc	; <UNPREDICTABLE>
    e740:	00000000 	andeq	r0, r0, r0
    e744:	0000ff00 	andeq	pc, r0, r0, lsl #30
    e748:	00000000 	andeq	r0, r0, r0
    e74c:	00ff0000 	rscseq	r0, pc, r0
    e750:	00000000 	andeq	r0, r0, r0
    e754:	0000ff00 	andeq	pc, r0, r0, lsl #30
    e758:	ffffffff 			; <UNDEFINED> instruction: 0xffffffff
    e75c:	000000ff 	strdeq	r0, [r0], -pc	; <UNPREDICTABLE>
	...
    e76c:	00ffffff 	ldrshteq	pc, [pc], #255	; <UNPREDICTABLE>
    e770:	ffffff00 			; <UNDEFINED> instruction: 0xffffff00
    e774:	00000000 	andeq	r0, r0, r0
    e778:	000000ff 	strdeq	r0, [r0], -pc	; <UNPREDICTABLE>
    e77c:	00000000 	andeq	r0, r0, r0
    e780:	ffff00ff 			; <UNDEFINED> instruction: 0xffff00ff
    e784:	000000ff 	strdeq	r0, [r0], -pc	; <UNPREDICTABLE>
    e788:	0000ffff 	strdeq	pc, [r0], -pc	; <UNPREDICTABLE>
    e78c:	00ffff00 	rscseq	pc, pc, r0, lsl #30
    e790:	000000ff 	strdeq	r0, [r0], -pc	; <UNPREDICTABLE>
    e794:	00ff0000 	rscseq	r0, pc, r0
    e798:	000000ff 	strdeq	r0, [r0], -pc	; <UNPREDICTABLE>
    e79c:	00ff0000 	rscseq	r0, pc, r0
    e7a0:	0000ffff 	strdeq	pc, [r0], -pc	; <UNPREDICTABLE>
    e7a4:	00ffff00 	rscseq	pc, pc, r0, lsl #30
    e7a8:	ffff0000 			; <UNDEFINED> instruction: 0xffff0000
    e7ac:	000000ff 	strdeq	r0, [r0], -pc	; <UNPREDICTABLE>
	...
    e7b8:	ffffffff 			; <UNDEFINED> instruction: 0xffffffff
    e7bc:	00ffffff 	ldrshteq	pc, [pc], #255	; <UNPREDICTABLE>
    e7c0:	00000000 	andeq	r0, r0, r0
    e7c4:	00ff0000 	rscseq	r0, pc, r0
    e7c8:	00000000 	andeq	r0, r0, r0
    e7cc:	0000ff00 	andeq	pc, r0, r0, lsl #30
    e7d0:	00000000 	andeq	r0, r0, r0
    e7d4:	000000ff 	strdeq	r0, [r0], -pc	; <UNPREDICTABLE>
    e7d8:	ff000000 			; <UNDEFINED> instruction: 0xff000000
    e7dc:	00000000 	andeq	r0, r0, r0
    e7e0:	ff000000 			; <UNDEFINED> instruction: 0xff000000
    e7e4:	00000000 	andeq	r0, r0, r0
    e7e8:	00ff0000 	rscseq	r0, pc, r0
    e7ec:	00000000 	andeq	r0, r0, r0
    e7f0:	0000ff00 	andeq	pc, r0, r0, lsl #30
    e7f4:	00000000 	andeq	r0, r0, r0
    e7f8:	000000ff 	strdeq	r0, [r0], -pc	; <UNPREDICTABLE>
	...
    e808:	ffff0000 			; <UNDEFINED> instruction: 0xffff0000
    e80c:	000000ff 	strdeq	r0, [r0], -pc	; <UNPREDICTABLE>
    e810:	0000ffff 	strdeq	pc, [r0], -pc	; <UNPREDICTABLE>
    e814:	00ffff00 	rscseq	pc, pc, r0, lsl #30
    e818:	000000ff 	strdeq	r0, [r0], -pc	; <UNPREDICTABLE>
    e81c:	00ff0000 	rscseq	r0, pc, r0
    e820:	0000ffff 	strdeq	pc, [r0], -pc	; <UNPREDICTABLE>
    e824:	00ffff00 	rscseq	pc, pc, r0, lsl #30
    e828:	ffff0000 			; <UNDEFINED> instruction: 0xffff0000
    e82c:	000000ff 	strdeq	r0, [r0], -pc	; <UNPREDICTABLE>
    e830:	0000ffff 	strdeq	pc, [r0], -pc	; <UNPREDICTABLE>
    e834:	00ffff00 	rscseq	pc, pc, r0, lsl #30
    e838:	000000ff 	strdeq	r0, [r0], -pc	; <UNPREDICTABLE>
    e83c:	00ff0000 	rscseq	r0, pc, r0
    e840:	0000ffff 	strdeq	pc, [r0], -pc	; <UNPREDICTABLE>
    e844:	00ffff00 	rscseq	pc, pc, r0, lsl #30
    e848:	ffff0000 			; <UNDEFINED> instruction: 0xffff0000
    e84c:	000000ff 	strdeq	r0, [r0], -pc	; <UNPREDICTABLE>
	...
    e858:	ffff0000 			; <UNDEFINED> instruction: 0xffff0000
    e85c:	0000ffff 	strdeq	pc, [r0], -pc	; <UNPREDICTABLE>
    e860:	0000ff00 	andeq	pc, r0, r0, lsl #30
    e864:	00ff0000 	rscseq	r0, pc, r0
    e868:	0000ff00 	andeq	pc, r0, r0, lsl #30
    e86c:	00ff0000 	rscseq	r0, pc, r0
    e870:	0000ff00 	andeq	pc, r0, r0, lsl #30
    e874:	00ffff00 	rscseq	pc, pc, r0, lsl #30
    e878:	ffff0000 			; <UNDEFINED> instruction: 0xffff0000
    e87c:	00ff00ff 	ldrshteq	r0, [pc], #15
    e880:	00000000 	andeq	r0, r0, r0
    e884:	00ff0000 	rscseq	r0, pc, r0
    e888:	00000000 	andeq	r0, r0, r0
    e88c:	00ff0000 	rscseq	r0, pc, r0
    e890:	00000000 	andeq	r0, r0, r0
    e894:	00ff0000 	rscseq	r0, pc, r0
    e898:	00000000 	andeq	r0, r0, r0
    e89c:	00ff0000 	rscseq	r0, pc, r0
	...
    e8b8:	ff000000 			; <UNDEFINED> instruction: 0xff000000
	...
    e8e0:	ff000000 			; <UNDEFINED> instruction: 0xff000000
	...
    e908:	ff000000 			; <UNDEFINED> instruction: 0xff000000
	...
    e928:	ff000000 			; <UNDEFINED> instruction: 0xff000000
    e92c:	00000000 	andeq	r0, r0, r0
    e930:	ff000000 			; <UNDEFINED> instruction: 0xff000000
    e934:	00000000 	andeq	r0, r0, r0
    e938:	00ff0000 	rscseq	r0, pc, r0
	...
    e94c:	00ff0000 	rscseq	r0, pc, r0
    e950:	00000000 	andeq	r0, r0, r0
    e954:	0000ffff 	strdeq	pc, [r0], -pc	; <UNPREDICTABLE>
    e958:	ff000000 			; <UNDEFINED> instruction: 0xff000000
    e95c:	00000000 	andeq	r0, r0, r0
    e960:	00ffff00 	rscseq	pc, pc, r0, lsl #30
    e964:	00000000 	andeq	r0, r0, r0
    e968:	000000ff 	strdeq	r0, [r0], -pc	; <UNPREDICTABLE>
    e96c:	00000000 	andeq	r0, r0, r0
    e970:	00ffff00 	rscseq	pc, pc, r0, lsl #30
    e974:	00000000 	andeq	r0, r0, r0
    e978:	ff000000 			; <UNDEFINED> instruction: 0xff000000
	...
    e984:	0000ffff 	strdeq	pc, [r0], -pc	; <UNPREDICTABLE>
    e988:	00000000 	andeq	r0, r0, r0
    e98c:	00ff0000 	rscseq	r0, pc, r0
	...
    e9a8:	ffffff00 			; <UNDEFINED> instruction: 0xffffff00
    e9ac:	0000ffff 	strdeq	pc, [r0], -pc	; <UNPREDICTABLE>
	...
    e9c0:	ffffff00 			; <UNDEFINED> instruction: 0xffffff00
    e9c4:	0000ffff 	strdeq	pc, [r0], -pc	; <UNPREDICTABLE>
	...
    e9e8:	000000ff 	strdeq	r0, [r0], -pc	; <UNPREDICTABLE>
    e9ec:	00000000 	andeq	r0, r0, r0
    e9f0:	00ffff00 	rscseq	pc, pc, r0, lsl #30
    e9f4:	00000000 	andeq	r0, r0, r0
    e9f8:	ff000000 			; <UNDEFINED> instruction: 0xff000000
	...
    ea04:	0000ffff 	strdeq	pc, [r0], -pc	; <UNPREDICTABLE>
    ea08:	00000000 	andeq	r0, r0, r0
    ea0c:	00ff0000 	rscseq	r0, pc, r0
    ea10:	00000000 	andeq	r0, r0, r0
    ea14:	0000ffff 	strdeq	pc, [r0], -pc	; <UNPREDICTABLE>
    ea18:	ff000000 			; <UNDEFINED> instruction: 0xff000000
    ea1c:	00000000 	andeq	r0, r0, r0
    ea20:	00ffff00 	rscseq	pc, pc, r0, lsl #30
    ea24:	00000000 	andeq	r0, r0, r0
    ea28:	000000ff 	strdeq	r0, [r0], -pc	; <UNPREDICTABLE>
	...
    ea38:	ffff0000 			; <UNDEFINED> instruction: 0xffff0000
    ea3c:	000000ff 	strdeq	r0, [r0], -pc	; <UNPREDICTABLE>
    ea40:	0000ff00 	andeq	pc, r0, r0, lsl #30
    ea44:	0000ff00 	andeq	pc, r0, r0, lsl #30
    ea48:	0000ff00 	andeq	pc, r0, r0, lsl #30
    ea4c:	0000ff00 	andeq	pc, r0, r0, lsl #30
    ea50:	00000000 	andeq	r0, r0, r0
    ea54:	000000ff 	strdeq	r0, [r0], -pc	; <UNPREDICTABLE>
    ea58:	ff000000 			; <UNDEFINED> instruction: 0xff000000
    ea5c:	00000000 	andeq	r0, r0, r0
    ea60:	ff000000 			; <UNDEFINED> instruction: 0xff000000
    ea64:	00000000 	andeq	r0, r0, r0
    ea68:	ff000000 			; <UNDEFINED> instruction: 0xff000000
	...
    ea78:	ff000000 			; <UNDEFINED> instruction: 0xff000000
	...
    ea88:	ffff0000 			; <UNDEFINED> instruction: 0xffff0000
    ea8c:	000000ff 	strdeq	r0, [r0], -pc	; <UNPREDICTABLE>
    ea90:	0000ff00 	andeq	pc, r0, r0, lsl #30
    ea94:	0000ff00 	andeq	pc, r0, r0, lsl #30
    ea98:	ff0000ff 			; <UNDEFINED> instruction: 0xff0000ff
    ea9c:	00ff0000 	rscseq	r0, pc, r0
    eaa0:	00ff00ff 	ldrshteq	r0, [pc], #15
    eaa4:	00ff00ff 	ldrshteq	r0, [pc], #15
    eaa8:	00ff00ff 	ldrshteq	r0, [pc], #15
    eaac:	00ff00ff 	ldrshteq	r0, [pc], #15
    eab0:	00ff00ff 	ldrshteq	r0, [pc], #15
    eab4:	00ff00ff 	ldrshteq	r0, [pc], #15
    eab8:	ff0000ff 			; <UNDEFINED> instruction: 0xff0000ff
    eabc:	00ffffff 	ldrshteq	pc, [pc], #255	; <UNPREDICTABLE>
    eac0:	0000ff00 	andeq	pc, r0, r0, lsl #30
    eac4:	00000000 	andeq	r0, r0, r0
    eac8:	00ff0000 	rscseq	r0, pc, r0
	...
    ead8:	ff000000 			; <UNDEFINED> instruction: 0xff000000
    eadc:	00000000 	andeq	r0, r0, r0
    eae0:	00ff0000 	rscseq	r0, pc, r0
    eae4:	000000ff 	strdeq	r0, [r0], -pc	; <UNPREDICTABLE>
    eae8:	0000ff00 	andeq	pc, r0, r0, lsl #30
    eaec:	0000ff00 	andeq	pc, r0, r0, lsl #30
    eaf0:	0000ff00 	andeq	pc, r0, r0, lsl #30
    eaf4:	0000ff00 	andeq	pc, r0, r0, lsl #30
    eaf8:	ffffffff 			; <UNDEFINED> instruction: 0xffffffff
    eafc:	00ffffff 	ldrshteq	pc, [pc], #255	; <UNPREDICTABLE>
    eb00:	000000ff 	strdeq	r0, [r0], -pc	; <UNPREDICTABLE>
    eb04:	00ff0000 	rscseq	r0, pc, r0
    eb08:	000000ff 	strdeq	r0, [r0], -pc	; <UNPREDICTABLE>
    eb0c:	00ff0000 	rscseq	r0, pc, r0
    eb10:	000000ff 	strdeq	r0, [r0], -pc	; <UNPREDICTABLE>
    eb14:	00ff0000 	rscseq	r0, pc, r0
    eb18:	000000ff 	strdeq	r0, [r0], -pc	; <UNPREDICTABLE>
    eb1c:	00ff0000 	rscseq	r0, pc, r0
	...
    eb28:	ffffffff 			; <UNDEFINED> instruction: 0xffffffff
    eb2c:	0000ffff 	strdeq	pc, [r0], -pc	; <UNPREDICTABLE>
    eb30:	000000ff 	strdeq	r0, [r0], -pc	; <UNPREDICTABLE>
    eb34:	00ff0000 	rscseq	r0, pc, r0
    eb38:	000000ff 	strdeq	r0, [r0], -pc	; <UNPREDICTABLE>
    eb3c:	00ff0000 	rscseq	r0, pc, r0
    eb40:	ffffffff 			; <UNDEFINED> instruction: 0xffffffff
    eb44:	0000ffff 	strdeq	pc, [r0], -pc	; <UNPREDICTABLE>
    eb48:	000000ff 	strdeq	r0, [r0], -pc	; <UNPREDICTABLE>
    eb4c:	00ff0000 	rscseq	r0, pc, r0
    eb50:	000000ff 	strdeq	r0, [r0], -pc	; <UNPREDICTABLE>
    eb54:	00ff0000 	rscseq	r0, pc, r0
    eb58:	000000ff 	strdeq	r0, [r0], -pc	; <UNPREDICTABLE>
    eb5c:	00ff0000 	rscseq	r0, pc, r0
    eb60:	000000ff 	strdeq	r0, [r0], -pc	; <UNPREDICTABLE>
    eb64:	00ff0000 	rscseq	r0, pc, r0
    eb68:	ffffffff 			; <UNDEFINED> instruction: 0xffffffff
    eb6c:	0000ffff 	strdeq	pc, [r0], -pc	; <UNPREDICTABLE>
	...
    eb78:	ffff0000 			; <UNDEFINED> instruction: 0xffff0000
    eb7c:	000000ff 	strdeq	r0, [r0], -pc	; <UNPREDICTABLE>
    eb80:	0000ff00 	andeq	pc, r0, r0, lsl #30
    eb84:	0000ff00 	andeq	pc, r0, r0, lsl #30
    eb88:	000000ff 	strdeq	r0, [r0], -pc	; <UNPREDICTABLE>
    eb8c:	00ff0000 	rscseq	r0, pc, r0
    eb90:	000000ff 	strdeq	r0, [r0], -pc	; <UNPREDICTABLE>
    eb94:	00000000 	andeq	r0, r0, r0
    eb98:	000000ff 	strdeq	r0, [r0], -pc	; <UNPREDICTABLE>
    eb9c:	00000000 	andeq	r0, r0, r0
    eba0:	000000ff 	strdeq	r0, [r0], -pc	; <UNPREDICTABLE>
    eba4:	00000000 	andeq	r0, r0, r0
    eba8:	000000ff 	strdeq	r0, [r0], -pc	; <UNPREDICTABLE>
    ebac:	00ff0000 	rscseq	r0, pc, r0
    ebb0:	0000ff00 	andeq	pc, r0, r0, lsl #30
    ebb4:	0000ff00 	andeq	pc, r0, r0, lsl #30
    ebb8:	ffff0000 			; <UNDEFINED> instruction: 0xffff0000
    ebbc:	000000ff 	strdeq	r0, [r0], -pc	; <UNPREDICTABLE>
	...
    ebc8:	ffffffff 			; <UNDEFINED> instruction: 0xffffffff
    ebcc:	000000ff 	strdeq	r0, [r0], -pc	; <UNPREDICTABLE>
    ebd0:	000000ff 	strdeq	r0, [r0], -pc	; <UNPREDICTABLE>
    ebd4:	0000ff00 	andeq	pc, r0, r0, lsl #30
    ebd8:	000000ff 	strdeq	r0, [r0], -pc	; <UNPREDICTABLE>
    ebdc:	00ff0000 	rscseq	r0, pc, r0
    ebe0:	000000ff 	strdeq	r0, [r0], -pc	; <UNPREDICTABLE>
    ebe4:	00ff0000 	rscseq	r0, pc, r0
    ebe8:	000000ff 	strdeq	r0, [r0], -pc	; <UNPREDICTABLE>
    ebec:	00ff0000 	rscseq	r0, pc, r0
    ebf0:	000000ff 	strdeq	r0, [r0], -pc	; <UNPREDICTABLE>
    ebf4:	00ff0000 	rscseq	r0, pc, r0
    ebf8:	000000ff 	strdeq	r0, [r0], -pc	; <UNPREDICTABLE>
    ebfc:	00ff0000 	rscseq	r0, pc, r0
    ec00:	000000ff 	strdeq	r0, [r0], -pc	; <UNPREDICTABLE>
    ec04:	0000ff00 	andeq	pc, r0, r0, lsl #30
    ec08:	ffffffff 			; <UNDEFINED> instruction: 0xffffffff
    ec0c:	000000ff 	strdeq	r0, [r0], -pc	; <UNPREDICTABLE>
	...
    ec18:	ffffffff 			; <UNDEFINED> instruction: 0xffffffff
    ec1c:	00ffffff 	ldrshteq	pc, [pc], #255	; <UNPREDICTABLE>
    ec20:	000000ff 	strdeq	r0, [r0], -pc	; <UNPREDICTABLE>
    ec24:	00000000 	andeq	r0, r0, r0
    ec28:	000000ff 	strdeq	r0, [r0], -pc	; <UNPREDICTABLE>
    ec2c:	00000000 	andeq	r0, r0, r0
    ec30:	ffffffff 			; <UNDEFINED> instruction: 0xffffffff
    ec34:	00000000 	andeq	r0, r0, r0
    ec38:	000000ff 	strdeq	r0, [r0], -pc	; <UNPREDICTABLE>
    ec3c:	00000000 	andeq	r0, r0, r0
    ec40:	000000ff 	strdeq	r0, [r0], -pc	; <UNPREDICTABLE>
    ec44:	00000000 	andeq	r0, r0, r0
    ec48:	000000ff 	strdeq	r0, [r0], -pc	; <UNPREDICTABLE>
    ec4c:	00000000 	andeq	r0, r0, r0
    ec50:	000000ff 	strdeq	r0, [r0], -pc	; <UNPREDICTABLE>
    ec54:	00000000 	andeq	r0, r0, r0
    ec58:	ffffffff 			; <UNDEFINED> instruction: 0xffffffff
    ec5c:	00ffffff 	ldrshteq	pc, [pc], #255	; <UNPREDICTABLE>
	...
    ec68:	ffffffff 			; <UNDEFINED> instruction: 0xffffffff
    ec6c:	00ffffff 	ldrshteq	pc, [pc], #255	; <UNPREDICTABLE>
    ec70:	000000ff 	strdeq	r0, [r0], -pc	; <UNPREDICTABLE>
    ec74:	00000000 	andeq	r0, r0, r0
    ec78:	000000ff 	strdeq	r0, [r0], -pc	; <UNPREDICTABLE>
    ec7c:	00000000 	andeq	r0, r0, r0
    ec80:	ffffffff 			; <UNDEFINED> instruction: 0xffffffff
    ec84:	00000000 	andeq	r0, r0, r0
    ec88:	000000ff 	strdeq	r0, [r0], -pc	; <UNPREDICTABLE>
    ec8c:	00000000 	andeq	r0, r0, r0
    ec90:	000000ff 	strdeq	r0, [r0], -pc	; <UNPREDICTABLE>
    ec94:	00000000 	andeq	r0, r0, r0
    ec98:	000000ff 	strdeq	r0, [r0], -pc	; <UNPREDICTABLE>
    ec9c:	00000000 	andeq	r0, r0, r0
    eca0:	000000ff 	strdeq	r0, [r0], -pc	; <UNPREDICTABLE>
    eca4:	00000000 	andeq	r0, r0, r0
    eca8:	000000ff 	strdeq	r0, [r0], -pc	; <UNPREDICTABLE>
	...
    ecb8:	ffff0000 			; <UNDEFINED> instruction: 0xffff0000
    ecbc:	000000ff 	strdeq	r0, [r0], -pc	; <UNPREDICTABLE>
    ecc0:	0000ff00 	andeq	pc, r0, r0, lsl #30
    ecc4:	0000ff00 	andeq	pc, r0, r0, lsl #30
    ecc8:	000000ff 	strdeq	r0, [r0], -pc	; <UNPREDICTABLE>
    eccc:	00ff0000 	rscseq	r0, pc, r0
    ecd0:	000000ff 	strdeq	r0, [r0], -pc	; <UNPREDICTABLE>
    ecd4:	00000000 	andeq	r0, r0, r0
    ecd8:	000000ff 	strdeq	r0, [r0], -pc	; <UNPREDICTABLE>
    ecdc:	00000000 	andeq	r0, r0, r0
    ece0:	000000ff 	strdeq	r0, [r0], -pc	; <UNPREDICTABLE>
    ece4:	00ffffff 	ldrshteq	pc, [pc], #255	; <UNPREDICTABLE>
    ece8:	000000ff 	strdeq	r0, [r0], -pc	; <UNPREDICTABLE>
    ecec:	00ff0000 	rscseq	r0, pc, r0
    ecf0:	0000ff00 	andeq	pc, r0, r0, lsl #30
    ecf4:	0000ff00 	andeq	pc, r0, r0, lsl #30
    ecf8:	ffff0000 			; <UNDEFINED> instruction: 0xffff0000
    ecfc:	000000ff 	strdeq	r0, [r0], -pc	; <UNPREDICTABLE>
	...
    ed08:	000000ff 	strdeq	r0, [r0], -pc	; <UNPREDICTABLE>
    ed0c:	00ff0000 	rscseq	r0, pc, r0
    ed10:	000000ff 	strdeq	r0, [r0], -pc	; <UNPREDICTABLE>
    ed14:	00ff0000 	rscseq	r0, pc, r0
    ed18:	000000ff 	strdeq	r0, [r0], -pc	; <UNPREDICTABLE>
    ed1c:	00ff0000 	rscseq	r0, pc, r0
    ed20:	ffffffff 			; <UNDEFINED> instruction: 0xffffffff
    ed24:	00ffffff 	ldrshteq	pc, [pc], #255	; <UNPREDICTABLE>
    ed28:	000000ff 	strdeq	r0, [r0], -pc	; <UNPREDICTABLE>
    ed2c:	00ff0000 	rscseq	r0, pc, r0
    ed30:	000000ff 	strdeq	r0, [r0], -pc	; <UNPREDICTABLE>
    ed34:	00ff0000 	rscseq	r0, pc, r0
    ed38:	000000ff 	strdeq	r0, [r0], -pc	; <UNPREDICTABLE>
    ed3c:	00ff0000 	rscseq	r0, pc, r0
    ed40:	000000ff 	strdeq	r0, [r0], -pc	; <UNPREDICTABLE>
    ed44:	00ff0000 	rscseq	r0, pc, r0
    ed48:	000000ff 	strdeq	r0, [r0], -pc	; <UNPREDICTABLE>
    ed4c:	00ff0000 	rscseq	r0, pc, r0
	...
    ed58:	ffffffff 			; <UNDEFINED> instruction: 0xffffffff
    ed5c:	00ffffff 	ldrshteq	pc, [pc], #255	; <UNPREDICTABLE>
    ed60:	ff000000 			; <UNDEFINED> instruction: 0xff000000
    ed64:	00000000 	andeq	r0, r0, r0
    ed68:	ff000000 			; <UNDEFINED> instruction: 0xff000000
    ed6c:	00000000 	andeq	r0, r0, r0
    ed70:	ff000000 			; <UNDEFINED> instruction: 0xff000000
    ed74:	00000000 	andeq	r0, r0, r0
    ed78:	ff000000 			; <UNDEFINED> instruction: 0xff000000
    ed7c:	00000000 	andeq	r0, r0, r0
    ed80:	ff000000 			; <UNDEFINED> instruction: 0xff000000
    ed84:	00000000 	andeq	r0, r0, r0
    ed88:	ff000000 			; <UNDEFINED> instruction: 0xff000000
    ed8c:	00000000 	andeq	r0, r0, r0
    ed90:	ff000000 			; <UNDEFINED> instruction: 0xff000000
    ed94:	00000000 	andeq	r0, r0, r0
    ed98:	ffffffff 			; <UNDEFINED> instruction: 0xffffffff
    ed9c:	00ffffff 	ldrshteq	pc, [pc], #255	; <UNPREDICTABLE>
	...
    eda8:	ffffffff 			; <UNDEFINED> instruction: 0xffffffff
    edac:	00ffffff 	ldrshteq	pc, [pc], #255	; <UNPREDICTABLE>
    edb0:	ff000000 			; <UNDEFINED> instruction: 0xff000000
    edb4:	00000000 	andeq	r0, r0, r0
    edb8:	ff000000 			; <UNDEFINED> instruction: 0xff000000
    edbc:	00000000 	andeq	r0, r0, r0
    edc0:	ff000000 			; <UNDEFINED> instruction: 0xff000000
    edc4:	00000000 	andeq	r0, r0, r0
    edc8:	ff000000 			; <UNDEFINED> instruction: 0xff000000
    edcc:	00000000 	andeq	r0, r0, r0
    edd0:	ff000000 			; <UNDEFINED> instruction: 0xff000000
    edd4:	00000000 	andeq	r0, r0, r0
    edd8:	ff0000ff 			; <UNDEFINED> instruction: 0xff0000ff
    eddc:	00000000 	andeq	r0, r0, r0
    ede0:	ff0000ff 			; <UNDEFINED> instruction: 0xff0000ff
    ede4:	00000000 	andeq	r0, r0, r0
    ede8:	00ffff00 	rscseq	pc, pc, r0, lsl #30
	...
    edf8:	000000ff 	strdeq	r0, [r0], -pc	; <UNPREDICTABLE>
    edfc:	00ff0000 	rscseq	r0, pc, r0
    ee00:	000000ff 	strdeq	r0, [r0], -pc	; <UNPREDICTABLE>
    ee04:	0000ffff 	strdeq	pc, [r0], -pc	; <UNPREDICTABLE>
    ee08:	ffff00ff 			; <UNDEFINED> instruction: 0xffff00ff
    ee0c:	00000000 	andeq	r0, r0, r0
    ee10:	0000ffff 	strdeq	pc, [r0], -pc	; <UNPREDICTABLE>
    ee14:	00000000 	andeq	r0, r0, r0
    ee18:	00ff00ff 	ldrshteq	r0, [pc], #15
    ee1c:	00000000 	andeq	r0, r0, r0
    ee20:	ff0000ff 			; <UNDEFINED> instruction: 0xff0000ff
    ee24:	00000000 	andeq	r0, r0, r0
    ee28:	000000ff 	strdeq	r0, [r0], -pc	; <UNPREDICTABLE>
    ee2c:	000000ff 	strdeq	r0, [r0], -pc	; <UNPREDICTABLE>
    ee30:	000000ff 	strdeq	r0, [r0], -pc	; <UNPREDICTABLE>
    ee34:	0000ff00 	andeq	pc, r0, r0, lsl #30
    ee38:	000000ff 	strdeq	r0, [r0], -pc	; <UNPREDICTABLE>
    ee3c:	00ff0000 	rscseq	r0, pc, r0
	...
    ee48:	000000ff 	strdeq	r0, [r0], -pc	; <UNPREDICTABLE>
    ee4c:	00000000 	andeq	r0, r0, r0
    ee50:	000000ff 	strdeq	r0, [r0], -pc	; <UNPREDICTABLE>
    ee54:	00000000 	andeq	r0, r0, r0
    ee58:	000000ff 	strdeq	r0, [r0], -pc	; <UNPREDICTABLE>
    ee5c:	00000000 	andeq	r0, r0, r0
    ee60:	000000ff 	strdeq	r0, [r0], -pc	; <UNPREDICTABLE>
    ee64:	00000000 	andeq	r0, r0, r0
    ee68:	000000ff 	strdeq	r0, [r0], -pc	; <UNPREDICTABLE>
    ee6c:	00000000 	andeq	r0, r0, r0
    ee70:	000000ff 	strdeq	r0, [r0], -pc	; <UNPREDICTABLE>
    ee74:	00000000 	andeq	r0, r0, r0
    ee78:	000000ff 	strdeq	r0, [r0], -pc	; <UNPREDICTABLE>
    ee7c:	00000000 	andeq	r0, r0, r0
    ee80:	000000ff 	strdeq	r0, [r0], -pc	; <UNPREDICTABLE>
    ee84:	00000000 	andeq	r0, r0, r0
    ee88:	ffffffff 			; <UNDEFINED> instruction: 0xffffffff
    ee8c:	00ffffff 	ldrshteq	pc, [pc], #255	; <UNPREDICTABLE>
	...
    ee98:	000000ff 	strdeq	r0, [r0], -pc	; <UNPREDICTABLE>
    ee9c:	00ff0000 	rscseq	r0, pc, r0
    eea0:	0000ffff 	strdeq	pc, [r0], -pc	; <UNPREDICTABLE>
    eea4:	00ffff00 	rscseq	pc, pc, r0, lsl #30
    eea8:	00ff00ff 	ldrshteq	r0, [pc], #15
    eeac:	00ff00ff 	ldrshteq	r0, [pc], #15
    eeb0:	00ff00ff 	ldrshteq	r0, [pc], #15
    eeb4:	00ff00ff 	ldrshteq	r0, [pc], #15
    eeb8:	ff0000ff 			; <UNDEFINED> instruction: 0xff0000ff
    eebc:	00ff0000 	rscseq	r0, pc, r0
    eec0:	000000ff 	strdeq	r0, [r0], -pc	; <UNPREDICTABLE>
    eec4:	00ff0000 	rscseq	r0, pc, r0
    eec8:	000000ff 	strdeq	r0, [r0], -pc	; <UNPREDICTABLE>
    eecc:	00ff0000 	rscseq	r0, pc, r0
    eed0:	000000ff 	strdeq	r0, [r0], -pc	; <UNPREDICTABLE>
    eed4:	00ff0000 	rscseq	r0, pc, r0
    eed8:	000000ff 	strdeq	r0, [r0], -pc	; <UNPREDICTABLE>
    eedc:	00ff0000 	rscseq	r0, pc, r0
	...
    eee8:	000000ff 	strdeq	r0, [r0], -pc	; <UNPREDICTABLE>
    eeec:	00ff0000 	rscseq	r0, pc, r0
    eef0:	0000ffff 	strdeq	pc, [r0], -pc	; <UNPREDICTABLE>
    eef4:	00ff0000 	rscseq	r0, pc, r0
    eef8:	00ff00ff 	ldrshteq	r0, [pc], #15
    eefc:	00ff0000 	rscseq	r0, pc, r0
    ef00:	00ff00ff 	ldrshteq	r0, [pc], #15
    ef04:	00ff0000 	rscseq	r0, pc, r0
    ef08:	ff0000ff 			; <UNDEFINED> instruction: 0xff0000ff
    ef0c:	00ff0000 	rscseq	r0, pc, r0
    ef10:	000000ff 	strdeq	r0, [r0], -pc	; <UNPREDICTABLE>
    ef14:	00ff00ff 	ldrshteq	r0, [pc], #15
    ef18:	000000ff 	strdeq	r0, [r0], -pc	; <UNPREDICTABLE>
    ef1c:	00ffff00 	rscseq	pc, pc, r0, lsl #30
    ef20:	000000ff 	strdeq	r0, [r0], -pc	; <UNPREDICTABLE>
    ef24:	00ffff00 	rscseq	pc, pc, r0, lsl #30
    ef28:	000000ff 	strdeq	r0, [r0], -pc	; <UNPREDICTABLE>
    ef2c:	00ff0000 	rscseq	r0, pc, r0
	...
    ef38:	ffff0000 			; <UNDEFINED> instruction: 0xffff0000
    ef3c:	000000ff 	strdeq	r0, [r0], -pc	; <UNPREDICTABLE>
    ef40:	0000ff00 	andeq	pc, r0, r0, lsl #30
    ef44:	0000ff00 	andeq	pc, r0, r0, lsl #30
    ef48:	000000ff 	strdeq	r0, [r0], -pc	; <UNPREDICTABLE>
    ef4c:	00ff0000 	rscseq	r0, pc, r0
    ef50:	000000ff 	strdeq	r0, [r0], -pc	; <UNPREDICTABLE>
    ef54:	00ff0000 	rscseq	r0, pc, r0
    ef58:	000000ff 	strdeq	r0, [r0], -pc	; <UNPREDICTABLE>
    ef5c:	00ff0000 	rscseq	r0, pc, r0
    ef60:	000000ff 	strdeq	r0, [r0], -pc	; <UNPREDICTABLE>
    ef64:	00ff0000 	rscseq	r0, pc, r0
    ef68:	000000ff 	strdeq	r0, [r0], -pc	; <UNPREDICTABLE>
    ef6c:	00ff0000 	rscseq	r0, pc, r0
    ef70:	0000ff00 	andeq	pc, r0, r0, lsl #30
    ef74:	0000ff00 	andeq	pc, r0, r0, lsl #30
    ef78:	ffff0000 			; <UNDEFINED> instruction: 0xffff0000
    ef7c:	000000ff 	strdeq	r0, [r0], -pc	; <UNPREDICTABLE>
	...
    ef88:	ffffffff 			; <UNDEFINED> instruction: 0xffffffff
    ef8c:	000000ff 	strdeq	r0, [r0], -pc	; <UNPREDICTABLE>
    ef90:	000000ff 	strdeq	r0, [r0], -pc	; <UNPREDICTABLE>
    ef94:	0000ff00 	andeq	pc, r0, r0, lsl #30
    ef98:	000000ff 	strdeq	r0, [r0], -pc	; <UNPREDICTABLE>
    ef9c:	00ff0000 	rscseq	r0, pc, r0
    efa0:	000000ff 	strdeq	r0, [r0], -pc	; <UNPREDICTABLE>
    efa4:	00ff0000 	rscseq	r0, pc, r0
    efa8:	000000ff 	strdeq	r0, [r0], -pc	; <UNPREDICTABLE>
    efac:	0000ff00 	andeq	pc, r0, r0, lsl #30
    efb0:	ffffffff 			; <UNDEFINED> instruction: 0xffffffff
    efb4:	000000ff 	strdeq	r0, [r0], -pc	; <UNPREDICTABLE>
    efb8:	000000ff 	strdeq	r0, [r0], -pc	; <UNPREDICTABLE>
    efbc:	00000000 	andeq	r0, r0, r0
    efc0:	000000ff 	strdeq	r0, [r0], -pc	; <UNPREDICTABLE>
    efc4:	00000000 	andeq	r0, r0, r0
    efc8:	000000ff 	strdeq	r0, [r0], -pc	; <UNPREDICTABLE>
	...
    efd8:	ffff0000 			; <UNDEFINED> instruction: 0xffff0000
    efdc:	000000ff 	strdeq	r0, [r0], -pc	; <UNPREDICTABLE>
    efe0:	0000ff00 	andeq	pc, r0, r0, lsl #30
    efe4:	0000ff00 	andeq	pc, r0, r0, lsl #30
    efe8:	000000ff 	strdeq	r0, [r0], -pc	; <UNPREDICTABLE>
    efec:	00ff0000 	rscseq	r0, pc, r0
    eff0:	000000ff 	strdeq	r0, [r0], -pc	; <UNPREDICTABLE>
    eff4:	00ff0000 	rscseq	r0, pc, r0
    eff8:	000000ff 	strdeq	r0, [r0], -pc	; <UNPREDICTABLE>
    effc:	00ff0000 	rscseq	r0, pc, r0
    f000:	000000ff 	strdeq	r0, [r0], -pc	; <UNPREDICTABLE>
    f004:	00ff0000 	rscseq	r0, pc, r0
    f008:	000000ff 	strdeq	r0, [r0], -pc	; <UNPREDICTABLE>
    f00c:	0000ff00 	andeq	pc, r0, r0, lsl #30
    f010:	0000ff00 	andeq	pc, r0, r0, lsl #30
    f014:	0000ffff 	strdeq	pc, [r0], -pc	; <UNPREDICTABLE>
    f018:	ffff0000 			; <UNDEFINED> instruction: 0xffff0000
    f01c:	00ff0000 	rscseq	r0, pc, r0
	...
    f028:	ffffffff 			; <UNDEFINED> instruction: 0xffffffff
    f02c:	000000ff 	strdeq	r0, [r0], -pc	; <UNPREDICTABLE>
    f030:	000000ff 	strdeq	r0, [r0], -pc	; <UNPREDICTABLE>
    f034:	0000ff00 	andeq	pc, r0, r0, lsl #30
    f038:	000000ff 	strdeq	r0, [r0], -pc	; <UNPREDICTABLE>
    f03c:	00ff0000 	rscseq	r0, pc, r0
    f040:	0000ffff 	strdeq	pc, [r0], -pc	; <UNPREDICTABLE>
    f044:	00ff0000 	rscseq	r0, pc, r0
    f048:	ffff00ff 			; <UNDEFINED> instruction: 0xffff00ff
    f04c:	0000ffff 	strdeq	pc, [r0], -pc	; <UNPREDICTABLE>
    f050:	ff0000ff 			; <UNDEFINED> instruction: 0xff0000ff
    f054:	00000000 	andeq	r0, r0, r0
    f058:	000000ff 	strdeq	r0, [r0], -pc	; <UNPREDICTABLE>
    f05c:	000000ff 	strdeq	r0, [r0], -pc	; <UNPREDICTABLE>
    f060:	000000ff 	strdeq	r0, [r0], -pc	; <UNPREDICTABLE>
    f064:	0000ff00 	andeq	pc, r0, r0, lsl #30
    f068:	000000ff 	strdeq	r0, [r0], -pc	; <UNPREDICTABLE>
    f06c:	00ff0000 	rscseq	r0, pc, r0
	...
    f078:	ffff0000 			; <UNDEFINED> instruction: 0xffff0000
    f07c:	0000ffff 	strdeq	pc, [r0], -pc	; <UNPREDICTABLE>
    f080:	0000ff00 	andeq	pc, r0, r0, lsl #30
    f084:	00ff0000 	rscseq	r0, pc, r0
    f088:	000000ff 	strdeq	r0, [r0], -pc	; <UNPREDICTABLE>
    f08c:	00000000 	andeq	r0, r0, r0
    f090:	0000ff00 	andeq	pc, r0, r0, lsl #30
    f094:	00000000 	andeq	r0, r0, r0
    f098:	ffff0000 			; <UNDEFINED> instruction: 0xffff0000
    f09c:	000000ff 	strdeq	r0, [r0], -pc	; <UNPREDICTABLE>
    f0a0:	00000000 	andeq	r0, r0, r0
    f0a4:	0000ff00 	andeq	pc, r0, r0, lsl #30
    f0a8:	00000000 	andeq	r0, r0, r0
    f0ac:	00ff0000 	rscseq	r0, pc, r0
    f0b0:	000000ff 	strdeq	r0, [r0], -pc	; <UNPREDICTABLE>
    f0b4:	0000ff00 	andeq	pc, r0, r0, lsl #30
    f0b8:	ffffff00 			; <UNDEFINED> instruction: 0xffffff00
    f0bc:	000000ff 	strdeq	r0, [r0], -pc	; <UNPREDICTABLE>
	...
    f0c8:	ffffffff 			; <UNDEFINED> instruction: 0xffffffff
    f0cc:	00ffffff 	ldrshteq	pc, [pc], #255	; <UNPREDICTABLE>
    f0d0:	ff000000 			; <UNDEFINED> instruction: 0xff000000
    f0d4:	00000000 	andeq	r0, r0, r0
    f0d8:	ff000000 			; <UNDEFINED> instruction: 0xff000000
    f0dc:	00000000 	andeq	r0, r0, r0
    f0e0:	ff000000 			; <UNDEFINED> instruction: 0xff000000
    f0e4:	00000000 	andeq	r0, r0, r0
    f0e8:	ff000000 			; <UNDEFINED> instruction: 0xff000000
    f0ec:	00000000 	andeq	r0, r0, r0
    f0f0:	ff000000 			; <UNDEFINED> instruction: 0xff000000
    f0f4:	00000000 	andeq	r0, r0, r0
    f0f8:	ff000000 			; <UNDEFINED> instruction: 0xff000000
    f0fc:	00000000 	andeq	r0, r0, r0
    f100:	ff000000 			; <UNDEFINED> instruction: 0xff000000
    f104:	00000000 	andeq	r0, r0, r0
    f108:	ff000000 			; <UNDEFINED> instruction: 0xff000000
	...
    f118:	000000ff 	strdeq	r0, [r0], -pc	; <UNPREDICTABLE>
    f11c:	00ff0000 	rscseq	r0, pc, r0
    f120:	000000ff 	strdeq	r0, [r0], -pc	; <UNPREDICTABLE>
    f124:	00ff0000 	rscseq	r0, pc, r0
    f128:	000000ff 	strdeq	r0, [r0], -pc	; <UNPREDICTABLE>
    f12c:	00ff0000 	rscseq	r0, pc, r0
    f130:	000000ff 	strdeq	r0, [r0], -pc	; <UNPREDICTABLE>
    f134:	00ff0000 	rscseq	r0, pc, r0
    f138:	000000ff 	strdeq	r0, [r0], -pc	; <UNPREDICTABLE>
    f13c:	00ff0000 	rscseq	r0, pc, r0
    f140:	000000ff 	strdeq	r0, [r0], -pc	; <UNPREDICTABLE>
    f144:	00ff0000 	rscseq	r0, pc, r0
    f148:	000000ff 	strdeq	r0, [r0], -pc	; <UNPREDICTABLE>
    f14c:	00ff0000 	rscseq	r0, pc, r0
    f150:	0000ff00 	andeq	pc, r0, r0, lsl #30
    f154:	0000ff00 	andeq	pc, r0, r0, lsl #30
    f158:	ffff0000 			; <UNDEFINED> instruction: 0xffff0000
    f15c:	000000ff 	strdeq	r0, [r0], -pc	; <UNPREDICTABLE>
	...
    f168:	000000ff 	strdeq	r0, [r0], -pc	; <UNPREDICTABLE>
    f16c:	00ff0000 	rscseq	r0, pc, r0
    f170:	000000ff 	strdeq	r0, [r0], -pc	; <UNPREDICTABLE>
    f174:	00ff0000 	rscseq	r0, pc, r0
    f178:	0000ff00 	andeq	pc, r0, r0, lsl #30
    f17c:	0000ff00 	andeq	pc, r0, r0, lsl #30
    f180:	0000ff00 	andeq	pc, r0, r0, lsl #30
    f184:	0000ff00 	andeq	pc, r0, r0, lsl #30
    f188:	0000ff00 	andeq	pc, r0, r0, lsl #30
    f18c:	0000ff00 	andeq	pc, r0, r0, lsl #30
    f190:	00ff0000 	rscseq	r0, pc, r0
    f194:	000000ff 	strdeq	r0, [r0], -pc	; <UNPREDICTABLE>
    f198:	00ff0000 	rscseq	r0, pc, r0
    f19c:	000000ff 	strdeq	r0, [r0], -pc	; <UNPREDICTABLE>
    f1a0:	ff000000 			; <UNDEFINED> instruction: 0xff000000
    f1a4:	00000000 	andeq	r0, r0, r0
    f1a8:	ff000000 			; <UNDEFINED> instruction: 0xff000000
	...
    f1b8:	000000ff 	strdeq	r0, [r0], -pc	; <UNPREDICTABLE>
    f1bc:	00ff0000 	rscseq	r0, pc, r0
    f1c0:	000000ff 	strdeq	r0, [r0], -pc	; <UNPREDICTABLE>
    f1c4:	00ff0000 	rscseq	r0, pc, r0
    f1c8:	000000ff 	strdeq	r0, [r0], -pc	; <UNPREDICTABLE>
    f1cc:	00ff0000 	rscseq	r0, pc, r0
    f1d0:	ff0000ff 			; <UNDEFINED> instruction: 0xff0000ff
    f1d4:	00ff0000 	rscseq	r0, pc, r0
    f1d8:	ff0000ff 			; <UNDEFINED> instruction: 0xff0000ff
    f1dc:	00ff0000 	rscseq	r0, pc, r0
    f1e0:	ff0000ff 			; <UNDEFINED> instruction: 0xff0000ff
    f1e4:	00ff0000 	rscseq	r0, pc, r0
    f1e8:	00ff00ff 	ldrshteq	r0, [pc], #15
    f1ec:	00ff00ff 	ldrshteq	r0, [pc], #15
    f1f0:	0000ffff 	strdeq	pc, [r0], -pc	; <UNPREDICTABLE>
    f1f4:	00ffff00 	rscseq	pc, pc, r0, lsl #30
    f1f8:	000000ff 	strdeq	r0, [r0], -pc	; <UNPREDICTABLE>
    f1fc:	00ff0000 	rscseq	r0, pc, r0
	...
    f208:	000000ff 	strdeq	r0, [r0], -pc	; <UNPREDICTABLE>
    f20c:	00ff0000 	rscseq	r0, pc, r0
    f210:	0000ff00 	andeq	pc, r0, r0, lsl #30
    f214:	0000ff00 	andeq	pc, r0, r0, lsl #30
    f218:	00ff0000 	rscseq	r0, pc, r0
    f21c:	000000ff 	strdeq	r0, [r0], -pc	; <UNPREDICTABLE>
    f220:	00ff0000 	rscseq	r0, pc, r0
    f224:	000000ff 	strdeq	r0, [r0], -pc	; <UNPREDICTABLE>
    f228:	ff000000 			; <UNDEFINED> instruction: 0xff000000
    f22c:	00000000 	andeq	r0, r0, r0
    f230:	00ff0000 	rscseq	r0, pc, r0
    f234:	000000ff 	strdeq	r0, [r0], -pc	; <UNPREDICTABLE>
    f238:	0000ff00 	andeq	pc, r0, r0, lsl #30
    f23c:	0000ff00 	andeq	pc, r0, r0, lsl #30
    f240:	0000ff00 	andeq	pc, r0, r0, lsl #30
    f244:	0000ff00 	andeq	pc, r0, r0, lsl #30
    f248:	000000ff 	strdeq	r0, [r0], -pc	; <UNPREDICTABLE>
    f24c:	00ff0000 	rscseq	r0, pc, r0
	...
    f258:	000000ff 	strdeq	r0, [r0], -pc	; <UNPREDICTABLE>
    f25c:	00ff0000 	rscseq	r0, pc, r0
    f260:	0000ff00 	andeq	pc, r0, r0, lsl #30
    f264:	0000ff00 	andeq	pc, r0, r0, lsl #30
    f268:	0000ff00 	andeq	pc, r0, r0, lsl #30
    f26c:	0000ff00 	andeq	pc, r0, r0, lsl #30
    f270:	00ff0000 	rscseq	r0, pc, r0
    f274:	000000ff 	strdeq	r0, [r0], -pc	; <UNPREDICTABLE>
    f278:	00ff0000 	rscseq	r0, pc, r0
    f27c:	000000ff 	strdeq	r0, [r0], -pc	; <UNPREDICTABLE>
    f280:	ff000000 			; <UNDEFINED> instruction: 0xff000000
    f284:	00000000 	andeq	r0, r0, r0
    f288:	ff000000 			; <UNDEFINED> instruction: 0xff000000
    f28c:	00000000 	andeq	r0, r0, r0
    f290:	ff000000 			; <UNDEFINED> instruction: 0xff000000
    f294:	00000000 	andeq	r0, r0, r0
    f298:	ff000000 			; <UNDEFINED> instruction: 0xff000000
	...
    f2a8:	ffffffff 			; <UNDEFINED> instruction: 0xffffffff
    f2ac:	00ffffff 	ldrshteq	pc, [pc], #255	; <UNPREDICTABLE>
    f2b0:	00000000 	andeq	r0, r0, r0
    f2b4:	0000ff00 	andeq	pc, r0, r0, lsl #30
    f2b8:	00000000 	andeq	r0, r0, r0
    f2bc:	000000ff 	strdeq	r0, [r0], -pc	; <UNPREDICTABLE>
    f2c0:	00000000 	andeq	r0, r0, r0
    f2c4:	000000ff 	strdeq	r0, [r0], -pc	; <UNPREDICTABLE>
    f2c8:	ff000000 			; <UNDEFINED> instruction: 0xff000000
    f2cc:	00000000 	andeq	r0, r0, r0
    f2d0:	00ff0000 	rscseq	r0, pc, r0
    f2d4:	00000000 	andeq	r0, r0, r0
    f2d8:	00ff0000 	rscseq	r0, pc, r0
    f2dc:	00000000 	andeq	r0, r0, r0
    f2e0:	0000ff00 	andeq	pc, r0, r0, lsl #30
    f2e4:	00000000 	andeq	r0, r0, r0
    f2e8:	ffffffff 			; <UNDEFINED> instruction: 0xffffffff
    f2ec:	00ffffff 	ldrshteq	pc, [pc], #255	; <UNPREDICTABLE>
	...
    f2f8:	ffffff00 			; <UNDEFINED> instruction: 0xffffff00
    f2fc:	000000ff 	strdeq	r0, [r0], -pc	; <UNPREDICTABLE>
    f300:	0000ff00 	andeq	pc, r0, r0, lsl #30
    f304:	00000000 	andeq	r0, r0, r0
    f308:	0000ff00 	andeq	pc, r0, r0, lsl #30
    f30c:	00000000 	andeq	r0, r0, r0
    f310:	0000ff00 	andeq	pc, r0, r0, lsl #30
    f314:	00000000 	andeq	r0, r0, r0
    f318:	0000ff00 	andeq	pc, r0, r0, lsl #30
    f31c:	00000000 	andeq	r0, r0, r0
    f320:	0000ff00 	andeq	pc, r0, r0, lsl #30
    f324:	00000000 	andeq	r0, r0, r0
    f328:	0000ff00 	andeq	pc, r0, r0, lsl #30
    f32c:	00000000 	andeq	r0, r0, r0
    f330:	0000ff00 	andeq	pc, r0, r0, lsl #30
    f334:	00000000 	andeq	r0, r0, r0
    f338:	ffffff00 			; <UNDEFINED> instruction: 0xffffff00
    f33c:	000000ff 	strdeq	r0, [r0], -pc	; <UNPREDICTABLE>
	...
    f348:	000000ff 	strdeq	r0, [r0], -pc	; <UNPREDICTABLE>
    f34c:	00000000 	andeq	r0, r0, r0
    f350:	0000ff00 	andeq	pc, r0, r0, lsl #30
    f354:	00000000 	andeq	r0, r0, r0
    f358:	00ff0000 	rscseq	r0, pc, r0
    f35c:	00000000 	andeq	r0, r0, r0
    f360:	00ff0000 	rscseq	r0, pc, r0
    f364:	00000000 	andeq	r0, r0, r0
    f368:	ff000000 			; <UNDEFINED> instruction: 0xff000000
	...
    f374:	000000ff 	strdeq	r0, [r0], -pc	; <UNPREDICTABLE>
    f378:	00000000 	andeq	r0, r0, r0
    f37c:	0000ff00 	andeq	pc, r0, r0, lsl #30
    f380:	00000000 	andeq	r0, r0, r0
    f384:	0000ff00 	andeq	pc, r0, r0, lsl #30
    f388:	00000000 	andeq	r0, r0, r0
    f38c:	00ff0000 	rscseq	r0, pc, r0
	...
    f398:	ffff0000 			; <UNDEFINED> instruction: 0xffff0000
    f39c:	0000ffff 	strdeq	pc, [r0], -pc	; <UNPREDICTABLE>
    f3a0:	00000000 	andeq	r0, r0, r0
    f3a4:	0000ff00 	andeq	pc, r0, r0, lsl #30
    f3a8:	00000000 	andeq	r0, r0, r0
    f3ac:	0000ff00 	andeq	pc, r0, r0, lsl #30
    f3b0:	00000000 	andeq	r0, r0, r0
    f3b4:	0000ff00 	andeq	pc, r0, r0, lsl #30
    f3b8:	00000000 	andeq	r0, r0, r0
    f3bc:	0000ff00 	andeq	pc, r0, r0, lsl #30
    f3c0:	00000000 	andeq	r0, r0, r0
    f3c4:	0000ff00 	andeq	pc, r0, r0, lsl #30
    f3c8:	00000000 	andeq	r0, r0, r0
    f3cc:	0000ff00 	andeq	pc, r0, r0, lsl #30
    f3d0:	00000000 	andeq	r0, r0, r0
    f3d4:	0000ff00 	andeq	pc, r0, r0, lsl #30
    f3d8:	ffff0000 			; <UNDEFINED> instruction: 0xffff0000
    f3dc:	0000ffff 	strdeq	pc, [r0], -pc	; <UNPREDICTABLE>
	...
    f3f0:	ff000000 			; <UNDEFINED> instruction: 0xff000000
    f3f4:	00000000 	andeq	r0, r0, r0
    f3f8:	00ff0000 	rscseq	r0, pc, r0
    f3fc:	000000ff 	strdeq	r0, [r0], -pc	; <UNPREDICTABLE>
    f400:	0000ff00 	andeq	pc, r0, r0, lsl #30
    f404:	0000ff00 	andeq	pc, r0, r0, lsl #30
    f408:	000000ff 	strdeq	r0, [r0], -pc	; <UNPREDICTABLE>
    f40c:	00ff0000 	rscseq	r0, pc, r0
	...
    f478:	ffffffff 			; <UNDEFINED> instruction: 0xffffffff
    f47c:	00ffffff 	ldrshteq	pc, [pc], #255	; <UNPREDICTABLE>
	...
    f490:	00ff0000 	rscseq	r0, pc, r0
    f494:	00000000 	andeq	r0, r0, r0
    f498:	ff000000 			; <UNDEFINED> instruction: 0xff000000
	...

0000f4d8 <rows>:
    f4d8:	00004000 	andeq	r4, r0, r0
    f4dc:	00008000 	andeq	r8, r0, r0
    f4e0:	00020000 	andeq	r0, r2, r0
    f4e4:	01000000 	mrseq	r0, (UNDEF: 0)
    f4e8:	00000040 	andeq	r0, r0, r0, asr #32
    f4ec:	00001000 	andeq	r1, r0, r0
    f4f0:	00002000 	andeq	r2, r0, r0
    f4f4:	00010000 	andeq	r0, r1, r0
    f4f8:	00080000 	andeq	r0, r8, r0
    f4fc:	00100000 	andseq	r0, r0, r0
    f500:	00200000 	eoreq	r0, r0, r0
    f504:	00000080 	andeq	r0, r0, r0, lsl #1

0000f508 <cols>:
    f508:	00000004 	andeq	r0, r0, r4
    f50c:	00000008 	andeq	r0, r0, r8
    f510:	00000010 	andeq	r0, r0, r0, lsl r0
    f514:	00000020 	andeq	r0, r0, r0, lsr #32

Disassembly of section .data:

0000f518 <keyCodes3>:
    f518:	0000df58 	andeq	sp, r0, r8, asr pc
    f51c:	0000df5c 	andeq	sp, r0, ip, asr pc
    f520:	0000df5c 	andeq	sp, r0, ip, asr pc
    f524:	0000df5c 	andeq	sp, r0, ip, asr pc
    f528:	0000df5c 	andeq	sp, r0, ip, asr pc
    f52c:	0000df5c 	andeq	sp, r0, ip, asr pc
    f530:	0000df5c 	andeq	sp, r0, ip, asr pc
    f534:	0000df5c 	andeq	sp, r0, ip, asr pc
    f538:	0000df5c 	andeq	sp, r0, ip, asr pc
    f53c:	0000df60 	andeq	sp, r0, r0, ror #30
    f540:	0000df64 	andeq	sp, r0, r4, ror #30
    f544:	0000df68 	andeq	sp, r0, r8, ror #30
    f548:	0000df6c 	andeq	sp, r0, ip, ror #30
    f54c:	0000df70 	andeq	sp, r0, r0, ror pc
    f550:	0000df74 	andeq	sp, r0, r4, ror pc
    f554:	0000df78 	andeq	sp, r0, r8, ror pc
    f558:	0000df7c 	andeq	sp, r0, ip, ror pc
    f55c:	0000df80 	andeq	sp, r0, r0, lsl #31
    f560:	0000df84 	andeq	sp, r0, r4, lsl #31
    f564:	0000df88 	andeq	sp, r0, r8, lsl #31
    f568:	0000df8c 	andeq	sp, r0, ip, lsl #31
    f56c:	0000df90 	muleq	r0, r0, pc	; <UNPREDICTABLE>
    f570:	0000df94 	muleq	r0, r4, pc	; <UNPREDICTABLE>
    f574:	0000df98 	muleq	r0, r8, pc	; <UNPREDICTABLE>
    f578:	0000df9c 	muleq	r0, ip, pc	; <UNPREDICTABLE>
    f57c:	0000dfa0 	andeq	sp, r0, r0, lsr #31
    f580:	0000dfa4 	andeq	sp, r0, r4, lsr #31
    f584:	0000dfa8 	andeq	sp, r0, r8, lsr #31
    f588:	0000dfac 	andeq	sp, r0, ip, lsr #31
    f58c:	0000dfb0 			; <UNDEFINED> instruction: 0x0000dfb0
    f590:	0000dfb4 			; <UNDEFINED> instruction: 0x0000dfb4
    f594:	0000dfb8 			; <UNDEFINED> instruction: 0x0000dfb8
    f598:	0000dfbc 			; <UNDEFINED> instruction: 0x0000dfbc
    f59c:	0000dfc0 	andeq	sp, r0, r0, asr #31
    f5a0:	0000dfc4 	andeq	sp, r0, r4, asr #31
    f5a4:	0000dfc8 	andeq	sp, r0, r8, asr #31
    f5a8:	0000dfcc 	andeq	sp, r0, ip, asr #31
    f5ac:	0000dfd0 	ldrdeq	sp, [r0], -r0
    f5b0:	0000dfd4 	ldrdeq	sp, [r0], -r4
    f5b4:	0000dfd8 	ldrdeq	sp, [r0], -r8
    f5b8:	0000dfdc 	ldrdeq	sp, [r0], -ip
    f5bc:	0000dfe0 	andeq	sp, r0, r0, ror #31
    f5c0:	0000df80 	andeq	sp, r0, r0, lsl #31
    f5c4:	0000dfe4 	andeq	sp, r0, r4, ror #31
    f5c8:	0000dfe8 	andeq	sp, r0, r8, ror #31
    f5cc:	0000dfec 	andeq	sp, r0, ip, ror #31
    f5d0:	0000dff0 	strdeq	sp, [r0], -r0
    f5d4:	0000dff4 	strdeq	sp, [r0], -r4
    f5d8:	0000dff8 	strdeq	sp, [r0], -r8

0000f5dc <keyCodes>:
    f5dc:	0000df58 	andeq	sp, r0, r8, asr pc
    f5e0:	0000df5c 	andeq	sp, r0, ip, asr pc
    f5e4:	0000df5c 	andeq	sp, r0, ip, asr pc
    f5e8:	0000df5c 	andeq	sp, r0, ip, asr pc
    f5ec:	0000df5c 	andeq	sp, r0, ip, asr pc
    f5f0:	0000df5c 	andeq	sp, r0, ip, asr pc
    f5f4:	0000df5c 	andeq	sp, r0, ip, asr pc
    f5f8:	0000df5c 	andeq	sp, r0, ip, asr pc
    f5fc:	0000df5c 	andeq	sp, r0, ip, asr pc
    f600:	0000dffc 	strdeq	sp, [r0], -ip
    f604:	0000e000 	andeq	lr, r0, r0
    f608:	0000e004 	andeq	lr, r0, r4
    f60c:	0000e008 	andeq	lr, r0, r8
    f610:	0000df80 	andeq	sp, r0, r0, lsl #31
    f614:	0000dfc8 	andeq	sp, r0, r8, asr #31
    f618:	0000dff4 	strdeq	sp, [r0], -r4
    f61c:	0000dfc4 	andeq	sp, r0, r4, asr #31
    f620:	0000e00c 	andeq	lr, r0, ip
    f624:	0000e010 	andeq	lr, r0, r0, lsl r0
    f628:	0000dfe4 	andeq	sp, r0, r4, ror #31
    f62c:	0000e014 	andeq	lr, r0, r4, lsl r0
    f630:	0000df70 	andeq	sp, r0, r0, ror pc
    f634:	0000df7c 	andeq	sp, r0, ip, ror pc
    f638:	0000df78 	andeq	sp, r0, r8, ror pc
    f63c:	0000df74 	andeq	sp, r0, r4, ror pc
    f640:	0000dfa0 	andeq	sp, r0, r0, lsr #31
    f644:	0000df8c 	andeq	sp, r0, ip, lsl #31
    f648:	0000dff0 	strdeq	sp, [r0], -r0
    f64c:	0000df94 	muleq	r0, r4, pc	; <UNPREDICTABLE>
    f650:	0000e018 	andeq	lr, r0, r8, lsl r0
    f654:	0000e01c 	andeq	lr, r0, ip, lsl r0
    f658:	0000dfe8 	andeq	sp, r0, r8, ror #31
    f65c:	0000e020 	andeq	lr, r0, r0, lsr #32
    f660:	0000dfa0 	andeq	sp, r0, r0, lsr #31
    f664:	0000dfac 	andeq	sp, r0, ip, lsr #31
    f668:	0000dfa8 	andeq	sp, r0, r8, lsr #31
    f66c:	0000dfa4 	andeq	sp, r0, r4, lsr #31
    f670:	0000e024 	andeq	lr, r0, r4, lsr #32
    f674:	0000df6c 	andeq	sp, r0, ip, ror #30
    f678:	0000df90 	muleq	r0, r0, pc	; <UNPREDICTABLE>
    f67c:	0000dfb4 			; <UNDEFINED> instruction: 0x0000dfb4
    f680:	0000e028 	andeq	lr, r0, r8, lsr #32
    f684:	0000e02c 	andeq	lr, r0, ip, lsr #32
    f688:	0000df60 	andeq	sp, r0, r0, ror #30
    f68c:	0000dfcc 	andeq	sp, r0, ip, asr #31
    f690:	0000dfd0 	ldrdeq	sp, [r0], -r0
    f694:	0000dfd4 	ldrdeq	sp, [r0], -r4
    f698:	0000dfd8 	ldrdeq	sp, [r0], -r8
    f69c:	0000dfdc 	ldrdeq	sp, [r0], -ip

Disassembly of section .ARM.attributes:

00000000 <.ARM.attributes>:
   0:	00002a41 	andeq	r2, r0, r1, asr #20
   4:	61656100 	cmnvs	r5, r0, lsl #2
   8:	01006962 	tsteq	r0, r2, ror #18
   c:	00000020 	andeq	r0, r0, r0, lsr #32
  10:	4d524105 	ldfmie	f4, [r2, #-20]	; 0xffffffec
  14:	54347620 	ldrtpl	r7, [r4], #-1568	; 0xfffff9e0
  18:	08020600 	stmdaeq	r2, {r9, sl}
  1c:	12010901 	andne	r0, r1, #16384	; 0x4000
  20:	15011404 	strne	r1, [r1, #-1028]	; 0xfffffbfc
  24:	18031701 	stmdane	r3, {r0, r8, r9, sl, ip}
  28:	Address 0x0000000000000028 is out of bounds.


Disassembly of section .comment:

00000000 <.comment>:
   0:	3a434347 	bcc	10d0d24 <shift+0x1347d4>
   4:	4e472820 	cdpmi	8, 4, cr2, cr7, cr0, {1}
   8:	6f542055 	svcvs	0x00542055
   c:	20736c6f 	rsbscs	r6, r3, pc, ror #24
  10:	20726f66 	rsbscs	r6, r2, r6, ror #30
  14:	206d7241 	rsbcs	r7, sp, r1, asr #4
  18:	65626d45 	strbvs	r6, [r2, #-3397]!	; 0xfffff2bb
  1c:	64656464 	strbtvs	r6, [r5], #-1124	; 0xfffffb9c
  20:	6f725020 	svcvs	0x00725020
  24:	73736563 	cmnvc	r3, #415236096	; 0x18c00000
  28:	2073726f 	rsbscs	r7, r3, pc, ror #4
  2c:	30322d39 	eorscc	r2, r2, r9, lsr sp
  30:	712d3931 			; <UNDEFINED> instruction: 0x712d3931
  34:	616d2d34 	cmnvs	sp, r4, lsr sp
  38:	29726f6a 	ldmdbcs	r2!, {r1, r3, r5, r6, r8, r9, sl, fp, sp, lr}^
  3c:	322e3920 	eorcc	r3, lr, #32, 18	; 0x80000
  40:	3220312e 	eorcc	r3, r0, #-2147483637	; 0x8000000b
  44:	31393130 	teqcc	r9, r0, lsr r1
  48:	20353230 	eorscs	r3, r5, r0, lsr r2
  4c:	6c657228 	sfmvs	f7, 2, [r5], #-160	; 0xffffff60
  50:	65736165 	ldrbvs	r6, [r3, #-357]!	; 0xfffffe9b
  54:	415b2029 	cmpmi	fp, r9, lsr #32
  58:	612f4d52 			; <UNDEFINED> instruction: 0x612f4d52
  5c:	392d6d72 	pushcc	{r1, r4, r5, r6, r8, sl, fp, sp, lr}
  60:	6172622d 	cmnvs	r2, sp, lsr #4
  64:	2068636e 	rsbcs	r6, r8, lr, ror #6
  68:	69766572 	ldmdbvs	r6!, {r1, r4, r5, r6, r8, sl, sp, lr}^
  6c:	6e6f6973 			; <UNDEFINED> instruction: 0x6e6f6973
  70:	37373220 	ldrcc	r3, [r7, -r0, lsr #4]!
  74:	5d393935 			; <UNDEFINED> instruction: 0x5d393935
	...

Disassembly of section .debug_frame:

00000000 <.debug_frame>:
   0:	0000000c 	andeq	r0, r0, ip
   4:	ffffffff 			; <UNDEFINED> instruction: 0xffffffff
   8:	7c020001 	stcvc	0, cr0, [r2], {1}
   c:	000d0c0e 	andeq	r0, sp, lr, lsl #24
  10:	0000001c 	andeq	r0, r0, ip, lsl r0
  14:	00000000 	andeq	r0, r0, r0
  18:	0000d0c8 	andeq	sp, r0, r8, asr #1
  1c:	00000290 	muleq	r0, r0, r2
  20:	100e420a 	andne	r4, lr, sl, lsl #4
  24:	03850484 	orreq	r0, r5, #132, 8	; 0x84000000
  28:	018e0286 	orreq	r0, lr, r6, lsl #5
  2c:	0b014603 	bleq	51840 <memArray+0x2d4b0>
  30:	0000000c 	andeq	r0, r0, ip
  34:	ffffffff 			; <UNDEFINED> instruction: 0xffffffff
  38:	7c010001 	stcvc	0, cr0, [r1], {1}
  3c:	000d0c0e 	andeq	r0, sp, lr, lsl #24
  40:	0000000c 	andeq	r0, r0, ip
  44:	00000030 	andeq	r0, r0, r0, lsr r0
  48:	0000d358 	andeq	sp, r0, r8, asr r3
  4c:	00000128 	andeq	r0, r0, r8, lsr #2
  50:	0000000c 	andeq	r0, r0, ip
  54:	ffffffff 			; <UNDEFINED> instruction: 0xffffffff
  58:	7c020001 	stcvc	0, cr0, [r2], {1}
  5c:	000d0c0e 	andeq	r0, sp, lr, lsl #24
  60:	0000001c 	andeq	r0, r0, ip, lsl r0
  64:	00000050 	andeq	r0, r0, r0, asr r0
  68:	0000d4a4 	andeq	sp, r0, r4, lsr #9
  6c:	0000031c 	andeq	r0, r0, ip, lsl r3
  70:	0c0e480a 	stceq	8, cr4, [lr], {10}
  74:	02850384 	addeq	r0, r5, #132, 6	; 0x10000002
  78:	8603018e 	strhi	r0, [r3], -lr, lsl #3
  7c:	00000b01 	andeq	r0, r0, r1, lsl #22
  80:	00000018 	andeq	r0, r0, r8, lsl r0
  84:	00000050 	andeq	r0, r0, r0, asr r0
  88:	0000d7c0 	andeq	sp, r0, r0, asr #15
  8c:	00000024 	andeq	r0, r0, r4, lsr #32
  90:	0c0e480a 	stceq	8, cr4, [lr], {10}
  94:	02850384 	addeq	r0, r5, #132, 6	; 0x10000002
  98:	0b4a018e 	bleq	12806d8 <shift+0x2e4188>
  9c:	00000018 	andeq	r0, r0, r8, lsl r0
  a0:	00000050 	andeq	r0, r0, r0, asr r0
  a4:	0000d7e4 	andeq	sp, r0, r4, ror #15
  a8:	00000028 	andeq	r0, r0, r8, lsr #32
  ac:	0c0e480a 	stceq	8, cr4, [lr], {10}
  b0:	02850384 	addeq	r0, r5, #132, 6	; 0x10000002
  b4:	0b4c018e 	bleq	13006f4 <shift+0x3641a4>
  b8:	00000018 	andeq	r0, r0, r8, lsl r0
  bc:	00000050 	andeq	r0, r0, r0, asr r0
  c0:	0000d80c 	andeq	sp, r0, ip, lsl #16
  c4:	00000048 	andeq	r0, r0, r8, asr #32
  c8:	0c0e5c0a 	stceq	12, cr5, [lr], {10}
  cc:	02850384 	addeq	r0, r5, #132, 6	; 0x10000002
  d0:	0b48018e 	bleq	1200710 <shift+0x2641c0>
  d4:	00000024 	andeq	r0, r0, r4, lsr #32
  d8:	00000050 	andeq	r0, r0, r0, asr r0
  dc:	0000d854 	andeq	sp, r0, r4, asr r8
  e0:	00000074 	andeq	r0, r0, r4, ror r0
  e4:	0e460a0a 	vmlaeq.f32	s1, s12, s20
  e8:	8503840c 	strhi	r8, [r3, #-1036]	; 0xfffffbf4
  ec:	44018e02 	strmi	r8, [r1], #-3586	; 0xfffff1fe
  f0:	0c0e460b 	stceq	6, cr4, [lr], {11}
  f4:	02850384 	addeq	r0, r5, #132, 6	; 0x10000002
  f8:	0b6a018e 	bleq	1a80738 <shift+0xae41e8>
  fc:	0000000c 	andeq	r0, r0, ip
 100:	ffffffff 			; <UNDEFINED> instruction: 0xffffffff
 104:	7c020001 	stcvc	0, cr0, [r2], {1}
 108:	000d0c0e 	andeq	r0, sp, lr, lsl #24
 10c:	0000001c 	andeq	r0, r0, ip, lsl r0
 110:	000000fc 	strdeq	r0, [r0], -ip
 114:	0000d8c8 	andeq	sp, r0, r8, asr #17
 118:	00000290 	muleq	r0, r0, r2
 11c:	100e420a 	andne	r4, lr, sl, lsl #4
 120:	03850484 	orreq	r0, r5, #132, 8	; 0x84000000
 124:	018e0286 	orreq	r0, lr, r6, lsl #5
 128:	0b014603 	bleq	5193c <memArray+0x2d5ac>
 12c:	0000001c 	andeq	r0, r0, ip, lsl r0
 130:	000000fc 	strdeq	r0, [r0], -ip
 134:	0000db58 	andeq	sp, r0, r8, asr fp
 138:	0000020c 	andeq	r0, r0, ip, lsl #4
 13c:	100e420a 	andne	r4, lr, sl, lsl #4
 140:	03850484 	orreq	r0, r5, #132, 8	; 0x84000000
 144:	018e0286 	orreq	r0, lr, r6, lsl #5
 148:	0b010403 	bleq	4115c <memArray+0x1cdcc>
 14c:	0000000c 	andeq	r0, r0, ip
 150:	ffffffff 			; <UNDEFINED> instruction: 0xffffffff
 154:	7c020001 	stcvc	0, cr0, [r2], {1}
 158:	000d0c0e 	andeq	r0, sp, lr, lsl #24
 15c:	0000001c 	andeq	r0, r0, ip, lsl r0
 160:	0000014c 	andeq	r0, r0, ip, asr #2
 164:	0000dd64 	andeq	sp, r0, r4, ror #26
 168:	00000098 	muleq	r0, r8, r0
 16c:	040e4c0a 	streq	r4, [lr], #-3082	; 0xfffff3f6
 170:	0e420a4a 	vmlseq.f32	s1, s4, s20
 174:	560b5c00 	strpl	r5, [fp], -r0, lsl #24
 178:	0b42000e 	bleq	10801b8 <shift+0xe3c68>
 17c:	00000018 	andeq	r0, r0, r8, lsl r0
 180:	0000014c 	andeq	r0, r0, ip, asr #2
 184:	0000ddfc 	strdeq	sp, [r0], -ip
 188:	00000034 	andeq	r0, r0, r4, lsr r0
 18c:	080e500a 	stmdaeq	lr, {r1, r3, ip, lr}
 190:	018e0280 	orreq	r0, lr, r0, lsl #5
 194:	00000b4a 	andeq	r0, r0, sl, asr #22
 198:	00000014 	andeq	r0, r0, r4, lsl r0
 19c:	0000014c 	andeq	r0, r0, ip, asr #2
 1a0:	0000de30 	andeq	sp, r0, r0, lsr lr
 1a4:	00000018 	andeq	r0, r0, r8, lsl r0
 1a8:	080e420a 	stmdaeq	lr, {r1, r3, r9, lr}
 1ac:	0b4a028e 	bleq	1280bec <shift+0x2e469c>
 1b0:	00000014 	andeq	r0, r0, r4, lsl r0
 1b4:	0000014c 	andeq	r0, r0, ip, asr #2
 1b8:	0000de48 	andeq	sp, r0, r8, asr #28
 1bc:	00000018 	andeq	r0, r0, r8, lsl r0
 1c0:	080e420a 	stmdaeq	lr, {r1, r3, r9, lr}
 1c4:	0b4a028e 	bleq	1280c04 <shift+0x2e46b4>
 1c8:	00000014 	andeq	r0, r0, r4, lsl r0
 1cc:	0000014c 	andeq	r0, r0, ip, asr #2
 1d0:	0000de60 	andeq	sp, r0, r0, ror #28
 1d4:	00000018 	andeq	r0, r0, r8, lsl r0
 1d8:	080e420a 	stmdaeq	lr, {r1, r3, r9, lr}
 1dc:	0b4a028e 	bleq	1280c1c <shift+0x2e46cc>
 1e0:	00000014 	andeq	r0, r0, r4, lsl r0
 1e4:	0000014c 	andeq	r0, r0, ip, asr #2
 1e8:	0000de78 	andeq	sp, r0, r8, ror lr
 1ec:	00000018 	andeq	r0, r0, r8, lsl r0
 1f0:	080e420a 	stmdaeq	lr, {r1, r3, r9, lr}
 1f4:	0b4a028e 	bleq	1280c34 <shift+0x2e46e4>
 1f8:	00000014 	andeq	r0, r0, r4, lsl r0
 1fc:	0000014c 	andeq	r0, r0, ip, asr #2
 200:	0000de90 	muleq	r0, r0, lr
 204:	00000018 	andeq	r0, r0, r8, lsl r0
 208:	080e420a 	stmdaeq	lr, {r1, r3, r9, lr}
 20c:	0b4a028e 	bleq	1280c4c <shift+0x2e46fc>
 210:	0000000c 	andeq	r0, r0, ip
 214:	ffffffff 			; <UNDEFINED> instruction: 0xffffffff
 218:	7c020001 	stcvc	0, cr0, [r2], {1}
 21c:	000d0c0e 	andeq	r0, sp, lr, lsl #24
 220:	00000010 	andeq	r0, r0, r0, lsl r0
 224:	00000210 	andeq	r0, r0, r0, lsl r2
 228:	0000dea8 	andeq	sp, r0, r8, lsr #29
 22c:	0000005c 	andeq	r0, r0, ip, asr r0
 230:	000b6e0a 	andeq	r6, fp, sl, lsl #28
 234:	0000000c 	andeq	r0, r0, ip
 238:	ffffffff 			; <UNDEFINED> instruction: 0xffffffff
 23c:	7c020001 	stcvc	0, cr0, [r2], {1}
 240:	000d0c0e 	andeq	r0, sp, lr, lsl #24
 244:	00000010 	andeq	r0, r0, r0, lsl r0
 248:	00000234 	andeq	r0, r0, r4, lsr r2
 24c:	0000df04 	andeq	sp, r0, r4, lsl #30
 250:	00000054 	andeq	r0, r0, r4, asr r0
 254:	000b6a0a 	andeq	r6, fp, sl, lsl #20
